GAS LISTING /tmp/ccLTWeZ9.s 			page 1


   1              		.file	"main.cpp"
   2              		.option pic
   3              		.option norelax
   4              		.text
   5              	.Ltext0:
   6              		.section	.text._ZN15IzvedenaThread1D2Ev,"axG",@progbits,_ZN15IzvedenaThread1D5Ev,comdat
   7              		.align	2
   8              		.weak	_ZN15IzvedenaThread1D2Ev
  10              	_ZN15IzvedenaThread1D2Ev:
  11              	.LFB61:
  12              		.file 1 "src/main.cpp"
   1:src/main.cpp  **** #include "../lib/console.h"
   2:src/main.cpp  **** #include "printing.hpp"
   3:src/main.cpp  **** #include "../h/list.hpp"
   4:src/main.cpp  **** #include "../h/syscall_c.h"
   5:src/main.cpp  **** #include "../h/syscallCode.hpp"
   6:src/main.cpp  **** #include "../h/riscv.hpp"
   7:src/main.cpp  **** #include "../h/memoryAllocator.hpp"
   8:src/main.cpp  **** #include "../lib/mem.h"
   9:src/main.cpp  **** //#include "../h/workers.hpp"
  10:src/main.cpp  **** #include "../h/tcb.hpp"
  11:src/main.cpp  **** #include "../h/syscall_cpp.hpp"
  12:src/main.cpp  **** 
  13:src/main.cpp  **** 
  14:src/main.cpp  **** /*sem_t sem1;
  15:src/main.cpp  **** 
  16:src/main.cpp  **** void p1(void *){
  17:src/main.cpp  ****     sem_wait(sem1);
  18:src/main.cpp  **** 
  19:src/main.cpp  ****     printString("\nNitA usla");
  20:src/main.cpp  **** 
  21:src/main.cpp  ****     TCB::yield();
  22:src/main.cpp  **** 
  23:src/main.cpp  ****     //printString("\nNitA ponovo usla");
  24:src/main.cpp  **** 
  25:src/main.cpp  ****     sem_signal(sem1);
  26:src/main.cpp  **** }
  27:src/main.cpp  **** 
  28:src/main.cpp  **** void p2(void *){
  29:src/main.cpp  ****     printString("\nNitB nije usla");
  30:src/main.cpp  **** 
  31:src/main.cpp  ****     sem_wait(sem1);
  32:src/main.cpp  **** 
  33:src/main.cpp  ****     printString("\nNitB usla");
  34:src/main.cpp  **** 
  35:src/main.cpp  ****     TCB::yield();
  36:src/main.cpp  **** }*/
  37:src/main.cpp  **** extern void userMain();
  38:src/main.cpp  **** 
  39:src/main.cpp  **** void userWrapperThread(void* arg) {
  40:src/main.cpp  ****     userMain();
  41:src/main.cpp  **** }
  42:src/main.cpp  **** /*
  43:src/main.cpp  **** 
  44:src/main.cpp  **** sem_t agent,mutex,matches,paper,tabacco;
  45:src/main.cpp  **** void agentfun(void *arg);
  46:src/main.cpp  **** void smoker1(void* arg);
GAS LISTING /tmp/ccLTWeZ9.s 			page 2


  47:src/main.cpp  **** void smoker2(void* arg);
  48:src/main.cpp  **** void smoker3(void* arg);
  49:src/main.cpp  **** */
  50:src/main.cpp  **** 
  51:src/main.cpp  **** bool finishedP1 = false;
  52:src/main.cpp  **** bool finishedP2 = false;
  53:src/main.cpp  **** 
  54:src/main.cpp  **** void p1(void *) {
  55:src/main.cpp  ****     for(int i  = 0; i < 10; ++i) {
  56:src/main.cpp  ****         if(i == 5){
  57:src/main.cpp  ****             Thread::dispatch();
  58:src/main.cpp  ****         }
  59:src/main.cpp  ****         printInt(i, 10, 0);
  60:src/main.cpp  ****         printString("\n");
  61:src/main.cpp  ****     }
  62:src/main.cpp  ****     bool finishedP1 = true;
  63:src/main.cpp  **** }
  64:src/main.cpp  **** 
  65:src/main.cpp  **** void p2(void *) {
  66:src/main.cpp  ****     for(int i  = 10; i > 0; --i) {
  67:src/main.cpp  ****         if(i == 5){
  68:src/main.cpp  ****             Thread::dispatch();
  69:src/main.cpp  ****         }
  70:src/main.cpp  ****         printInt(i, 10, 0);
  71:src/main.cpp  ****         printString("\n");
  72:src/main.cpp  ****     }
  73:src/main.cpp  ****     finishedP2 = true;
  74:src/main.cpp  **** }
  75:src/main.cpp  **** 
  76:src/main.cpp  **** class IzvedenaThread1: public Thread {
  13              		.loc 1 76 7
  14              		.cfi_startproc
  15              	.LVL0:
  16 0000 130101FF 		addi	sp,sp,-16
  17              		.cfi_def_cfa_offset 16
  18 0004 23341100 		sd	ra,8(sp)
  19 0008 23308100 		sd	s0,0(sp)
  20              		.cfi_offset 1, -8
  21              		.cfi_offset 8, -16
  22 000c 13040101 		addi	s0,sp,16
  23              		.cfi_def_cfa 8, 0
  24              	.LBB8:
  25              		.loc 1 76 7 is_stmt 0
  26 0010 97070000 		lla	a5,_ZTV15IzvedenaThread1+16
  26      93870700 
  27 0018 2330F500 		sd	a5,0(a0)
  28 001c 97000000 		call	_ZN6ThreadD2Ev@plt
  28      E7800000 
  29              	.LVL1:
  30              	.LBE8:
  31 0024 83308100 		ld	ra,8(sp)
  32              		.cfi_restore 1
  33 0028 03340100 		ld	s0,0(sp)
  34              		.cfi_restore 8
  35              		.cfi_def_cfa 2, 16
  36 002c 13010101 		addi	sp,sp,16
  37              		.cfi_def_cfa_offset 0
GAS LISTING /tmp/ccLTWeZ9.s 			page 3


  38 0030 67800000 		jr	ra
  39              		.cfi_endproc
  40              	.LFE61:
  42              		.weak	_ZN15IzvedenaThread1D1Ev
  43              		.set	_ZN15IzvedenaThread1D1Ev,_ZN15IzvedenaThread1D2Ev
  44              		.section	.text._ZN15IzvedenaThread1D0Ev,"axG",@progbits,_ZN15IzvedenaThread1D5Ev,comdat
  45              		.align	2
  46              		.weak	_ZN15IzvedenaThread1D0Ev
  48              	_ZN15IzvedenaThread1D0Ev:
  49              	.LFB63:
  50              		.loc 1 76 7 is_stmt 1
  51              		.cfi_startproc
  52              	.LVL2:
  53 0000 130101FE 		addi	sp,sp,-32
  54              		.cfi_def_cfa_offset 32
  55 0004 233C1100 		sd	ra,24(sp)
  56 0008 23388100 		sd	s0,16(sp)
  57 000c 23349100 		sd	s1,8(sp)
  58              		.cfi_offset 1, -8
  59              		.cfi_offset 8, -16
  60              		.cfi_offset 9, -24
  61 0010 13040102 		addi	s0,sp,32
  62              		.cfi_def_cfa 8, 0
  63 0014 93040500 		mv	s1,a0
  64              	.LVL3:
  65              	.LBB9:
  66              	.LBB10:
  67              		.loc 1 76 7 is_stmt 0
  68 0018 97070000 		lla	a5,_ZTV15IzvedenaThread1+16
  68      93870700 
  69 0020 2330F500 		sd	a5,0(a0)
  70 0024 97000000 		call	_ZN6ThreadD2Ev@plt
  70      E7800000 
  71              	.LVL4:
  72              	.LBE10:
  73              	.LBE9:
  74 002c 13850400 		mv	a0,s1
  75 0030 97000000 		call	_ZdlPv@plt
  75      E7800000 
  76              	.LVL5:
  77 0038 83308101 		ld	ra,24(sp)
  78              		.cfi_restore 1
  79 003c 03340101 		ld	s0,16(sp)
  80              		.cfi_restore 8
  81              		.cfi_def_cfa 2, 32
  82 0040 83348100 		ld	s1,8(sp)
  83              		.cfi_restore 9
  84              	.LVL6:
  85 0044 13010102 		addi	sp,sp,32
  86              		.cfi_def_cfa_offset 0
  87 0048 67800000 		jr	ra
  88              		.cfi_endproc
  89              	.LFE63:
  91              		.text
  92              		.align	2
  93              		.globl	_Z17userWrapperThreadPv
  95              	_Z17userWrapperThreadPv:
GAS LISTING /tmp/ccLTWeZ9.s 			page 4


  96              	.LFB44:
  39:src/main.cpp  ****     userMain();
  97              		.loc 1 39 35 is_stmt 1
  98              		.cfi_startproc
  99              	.LVL7:
 100 0000 130101FF 		addi	sp,sp,-16
 101              		.cfi_def_cfa_offset 16
 102 0004 23341100 		sd	ra,8(sp)
 103 0008 23308100 		sd	s0,0(sp)
 104              		.cfi_offset 1, -8
 105              		.cfi_offset 8, -16
 106 000c 13040101 		addi	s0,sp,16
 107              		.cfi_def_cfa 8, 0
  40:src/main.cpp  **** }
 108              		.loc 1 40 5
  40:src/main.cpp  **** }
 109              		.loc 1 40 13 is_stmt 0
 110 0010 97000000 		call	_Z8userMainv@plt
 110      E7800000 
 111              	.LVL8:
  41:src/main.cpp  **** /*
 112              		.loc 1 41 1
 113 0018 83308100 		ld	ra,8(sp)
 114              		.cfi_restore 1
 115 001c 03340100 		ld	s0,0(sp)
 116              		.cfi_restore 8
 117              		.cfi_def_cfa 2, 16
 118 0020 13010101 		addi	sp,sp,16
 119              		.cfi_def_cfa_offset 0
 120 0024 67800000 		jr	ra
 121              		.cfi_endproc
 122              	.LFE44:
 124              		.section	.rodata.str1.8,"aMS",@progbits,1
 125              		.align	3
 126              	.LC0:
 127 0000 0A00     		.string	"\n"
 128              		.text
 129              		.align	2
 130              		.globl	_Z2p1Pv
 132              	_Z2p1Pv:
 133              	.LFB45:
  54:src/main.cpp  ****     for(int i  = 0; i < 10; ++i) {
 134              		.loc 1 54 17 is_stmt 1
 135              		.cfi_startproc
 136 0028 130101FE 		addi	sp,sp,-32
 137              		.cfi_def_cfa_offset 32
 138 002c 233C1100 		sd	ra,24(sp)
 139 0030 23388100 		sd	s0,16(sp)
 140 0034 23349100 		sd	s1,8(sp)
 141              		.cfi_offset 1, -8
 142              		.cfi_offset 8, -16
 143              		.cfi_offset 9, -24
 144 0038 13040102 		addi	s0,sp,32
 145              		.cfi_def_cfa 8, 0
  55:src/main.cpp  ****         if(i == 5){
 146              		.loc 1 55 5
 147              	.LVL9:
GAS LISTING /tmp/ccLTWeZ9.s 			page 5


 148              	.LBB11:
  55:src/main.cpp  ****         if(i == 5){
 149              		.loc 1 55 13 is_stmt 0
 150 003c 93040000 		li	s1,0
 151 0040 6F004003 		j	.L10
 152              	.LVL10:
 153              	.L12:
  57:src/main.cpp  ****         }
 154              		.loc 1 57 13 is_stmt 1
  57:src/main.cpp  ****         }
 155              		.loc 1 57 29 is_stmt 0
 156 0044 97000000 		call	_ZN6Thread8dispatchEv@plt
 156      E7800000 
 157              	.LVL11:
 158              	.L9:
  59:src/main.cpp  ****         printString("\n");
 159              		.loc 1 59 9 is_stmt 1 discriminator 2
  59:src/main.cpp  ****         printString("\n");
 160              		.loc 1 59 17 is_stmt 0 discriminator 2
 161 004c 13060000 		li	a2,0
 162 0050 9305A000 		li	a1,10
 163 0054 13850400 		mv	a0,s1
 164 0058 97000000 		call	_Z8printIntiii@plt
 164      E7800000 
 165              	.LVL12:
  60:src/main.cpp  ****     }
 166              		.loc 1 60 9 is_stmt 1 discriminator 2
  60:src/main.cpp  ****     }
 167              		.loc 1 60 20 is_stmt 0 discriminator 2
 168 0060 17050000 		lla	a0,.LC0
 168      13050500 
 169 0068 97000000 		call	_Z11printStringPKc@plt
 169      E7800000 
 170              	.LVL13:
  55:src/main.cpp  ****         if(i == 5){
 171              		.loc 1 55 5 is_stmt 1 discriminator 2
 172 0070 9B841400 		addiw	s1,s1,1
 173              	.LVL14:
 174              	.L10:
  55:src/main.cpp  ****         if(i == 5){
 175              		.loc 1 55 23 discriminator 1
 176 0074 93079000 		li	a5,9
 177 0078 63C89700 		bgt	s1,a5,.L7
  56:src/main.cpp  ****             Thread::dispatch();
 178              		.loc 1 56 9
 179 007c 93075000 		li	a5,5
 180 0080 E396F4FC 		bne	s1,a5,.L9
 181 0084 6FF01FFC 		j	.L12
 182              	.L7:
 183              	.LBE11:
  63:src/main.cpp  **** 
 184              		.loc 1 63 1 is_stmt 0
 185 0088 83308101 		ld	ra,24(sp)
 186              		.cfi_restore 1
 187 008c 03340101 		ld	s0,16(sp)
 188              		.cfi_restore 8
 189              		.cfi_def_cfa 2, 32
GAS LISTING /tmp/ccLTWeZ9.s 			page 6


 190 0090 83348100 		ld	s1,8(sp)
 191              		.cfi_restore 9
 192              	.LVL15:
 193 0094 13010102 		addi	sp,sp,32
 194              		.cfi_def_cfa_offset 0
 195 0098 67800000 		jr	ra
 196              		.cfi_endproc
 197              	.LFE45:
 199              		.section	.text._ZN15IzvedenaThread13runEv,"axG",@progbits,_ZN15IzvedenaThread13runEv,comdat
 200              		.align	2
 201              		.weak	_ZN15IzvedenaThread13runEv
 203              	_ZN15IzvedenaThread13runEv:
 204              	.LFB50:
  77:src/main.cpp  **** //    void workerBodyC(void* arg);
  78:src/main.cpp  **** public:
  79:src/main.cpp  ****     IzvedenaThread1():Thread() {}
  80:src/main.cpp  **** 
  81:src/main.cpp  ****     void run() override {
 205              		.loc 1 81 10 is_stmt 1
 206              		.cfi_startproc
 207              	.LVL16:
 208 0000 130101FF 		addi	sp,sp,-16
 209              		.cfi_def_cfa_offset 16
 210 0004 23341100 		sd	ra,8(sp)
 211 0008 23308100 		sd	s0,0(sp)
 212              		.cfi_offset 1, -8
 213              		.cfi_offset 8, -16
 214 000c 13040101 		addi	s0,sp,16
 215              		.cfi_def_cfa 8, 0
  82:src/main.cpp  ****         p1(nullptr);
 216              		.loc 1 82 9
 217              		.loc 1 82 11 is_stmt 0
 218 0010 13050000 		li	a0,0
 219              	.LVL17:
 220 0014 97000000 		call	_Z2p1Pv
 220      E7800000 
 221              	.LVL18:
  83:src/main.cpp  ****     }
 222              		.loc 1 83 5
 223 001c 83308100 		ld	ra,8(sp)
 224              		.cfi_restore 1
 225 0020 03340100 		ld	s0,0(sp)
 226              		.cfi_restore 8
 227              		.cfi_def_cfa 2, 16
 228 0024 13010101 		addi	sp,sp,16
 229              		.cfi_def_cfa_offset 0
 230 0028 67800000 		jr	ra
 231              		.cfi_endproc
 232              	.LFE50:
 234              		.text
 235              		.align	2
 236              		.globl	_Z2p2Pv
 238              	_Z2p2Pv:
 239              	.LFB46:
  65:src/main.cpp  ****     for(int i  = 10; i > 0; --i) {
 240              		.loc 1 65 17 is_stmt 1
 241              		.cfi_startproc
GAS LISTING /tmp/ccLTWeZ9.s 			page 7


 242 009c 130101FE 		addi	sp,sp,-32
 243              		.cfi_def_cfa_offset 32
 244 00a0 233C1100 		sd	ra,24(sp)
 245 00a4 23388100 		sd	s0,16(sp)
 246 00a8 23349100 		sd	s1,8(sp)
 247              		.cfi_offset 1, -8
 248              		.cfi_offset 8, -16
 249              		.cfi_offset 9, -24
 250 00ac 13040102 		addi	s0,sp,32
 251              		.cfi_def_cfa 8, 0
  66:src/main.cpp  ****         if(i == 5){
 252              		.loc 1 66 5
 253              	.LVL19:
 254              	.LBB12:
  66:src/main.cpp  ****         if(i == 5){
 255              		.loc 1 66 13 is_stmt 0
 256 00b0 9304A000 		li	s1,10
 257 00b4 6F004003 		j	.L18
 258              	.LVL20:
 259              	.L20:
  68:src/main.cpp  ****         }
 260              		.loc 1 68 13 is_stmt 1
  68:src/main.cpp  ****         }
 261              		.loc 1 68 29 is_stmt 0
 262 00b8 97000000 		call	_ZN6Thread8dispatchEv@plt
 262      E7800000 
 263              	.LVL21:
 264              	.L17:
  70:src/main.cpp  ****         printString("\n");
 265              		.loc 1 70 9 is_stmt 1 discriminator 2
  70:src/main.cpp  ****         printString("\n");
 266              		.loc 1 70 17 is_stmt 0 discriminator 2
 267 00c0 13060000 		li	a2,0
 268 00c4 9305A000 		li	a1,10
 269 00c8 13850400 		mv	a0,s1
 270 00cc 97000000 		call	_Z8printIntiii@plt
 270      E7800000 
 271              	.LVL22:
  71:src/main.cpp  ****     }
 272              		.loc 1 71 9 is_stmt 1 discriminator 2
  71:src/main.cpp  ****     }
 273              		.loc 1 71 20 is_stmt 0 discriminator 2
 274 00d4 17050000 		lla	a0,.LC0
 274      13050500 
 275 00dc 97000000 		call	_Z11printStringPKc@plt
 275      E7800000 
 276              	.LVL23:
  66:src/main.cpp  ****         if(i == 5){
 277              		.loc 1 66 5 is_stmt 1 discriminator 2
 278 00e4 9B84F4FF 		addiw	s1,s1,-1
 279              	.LVL24:
 280              	.L18:
  66:src/main.cpp  ****         if(i == 5){
 281              		.loc 1 66 24 discriminator 1
 282 00e8 63589000 		blez	s1,.L16
  67:src/main.cpp  ****             Thread::dispatch();
 283              		.loc 1 67 9
GAS LISTING /tmp/ccLTWeZ9.s 			page 8


 284 00ec 93075000 		li	a5,5
 285 00f0 E398F4FC 		bne	s1,a5,.L17
 286 00f4 6FF05FFC 		j	.L20
 287              	.L16:
 288              	.LBE12:
  73:src/main.cpp  **** }
 289              		.loc 1 73 5
  73:src/main.cpp  **** }
 290              		.loc 1 73 16 is_stmt 0
 291 00f8 93071000 		li	a5,1
 292 00fc 17070000 		sb	a5,.LANCHOR0,a4
 292      2300F700 
  74:src/main.cpp  **** 
 293              		.loc 1 74 1
 294 0104 83308101 		ld	ra,24(sp)
 295              		.cfi_restore 1
 296 0108 03340101 		ld	s0,16(sp)
 297              		.cfi_restore 8
 298              		.cfi_def_cfa 2, 32
 299 010c 83348100 		ld	s1,8(sp)
 300              		.cfi_restore 9
 301              	.LVL25:
 302 0110 13010102 		addi	sp,sp,32
 303              		.cfi_def_cfa_offset 0
 304 0114 67800000 		jr	ra
 305              		.cfi_endproc
 306              	.LFE46:
 308              		.align	2
 309              		.globl	main
 311              	main:
 312              	.LFB55:
  84:src/main.cpp  **** };
  85:src/main.cpp  **** 
  86:src/main.cpp  **** class IzvedenaThread2: public Thread {
  87:src/main.cpp  **** //    void workerBodyC(void* arg);
  88:src/main.cpp  **** public:
  89:src/main.cpp  ****     IzvedenaThread2():Thread() {}
  90:src/main.cpp  **** 
  91:src/main.cpp  ****     void run() override {
  92:src/main.cpp  ****         p2(nullptr);
  93:src/main.cpp  ****     }
  94:src/main.cpp  **** };
  95:src/main.cpp  **** 
  96:src/main.cpp  **** void main() {
 313              		.loc 1 96 13 is_stmt 1
 314              		.cfi_startproc
 315              		.cfi_personality 0x9b,DW.ref.__gxx_personality_v0
 316              		.cfi_lsda 0x1b,.LLSDA55
 317 0118 130101FD 		addi	sp,sp,-48
 318              		.cfi_def_cfa_offset 48
 319 011c 23341102 		sd	ra,40(sp)
 320 0120 23308102 		sd	s0,32(sp)
 321 0124 233C9100 		sd	s1,24(sp)
 322 0128 23382101 		sd	s2,16(sp)
 323              		.cfi_offset 1, -8
 324              		.cfi_offset 8, -16
 325              		.cfi_offset 9, -24
GAS LISTING /tmp/ccLTWeZ9.s 			page 9


 326              		.cfi_offset 18, -32
 327 012c 13040103 		addi	s0,sp,48
 328              		.cfi_def_cfa 8, 0
  97:src/main.cpp  ****     // postavljena adresa prekidne rutine u stvec
  98:src/main.cpp  ****     __asm__ volatile ("csrw stvec, %[vector]" : : [vector] "r" (&Riscv::supervisorTrap) );
 329              		.loc 1 98 5
 330              		.loc 1 98 90 is_stmt 0
 331 0130 97070000 		la	a5,_ZN5Riscv14supervisorTrapEv
 331      83B70700 
 332              	#APP
 333              	# 98 "src/main.cpp" 1
  99              	
 100:src/main.cpp  **** /*
 101:src/main.cpp  ****     thread_t threads[5];
 102:src/main.cpp  ****     thread_create(&threads[0], workerBodyA, nullptr);
 103:src/main.cpp  ****     TCB::running = threads[0];
 104:src/main.cpp  **** 
 105:src/main.cpp  ****     // postavljen bit 1 (SIE) na 1 => omuguceni prekidi
 106:src/main.cpp  ****     __asm__ volatile ("csrs sstatus, 0x02");
 107:src/main.cpp  **** 
 108:src/main.cpp  ****     thread_create(&threads[1], workerBodyA, nullptr);
 109:src/main.cpp  **** 
 110:src/main.cpp  ****     thread_create(&threads[2], workerBodyB, nullptr);
 111:src/main.cpp  ****     printString("ThreadB created\n");
 112:src/main.cpp  **** 
 113:src/main.cpp  ****     thread_create(&threads[3], workerBodyC, nullptr);
 114:src/main.cpp  ****     printString("ThreadC created\n");
 115:src/main.cpp  **** 
 116:src/main.cpp  ****     thread_create(&threads[4], workerBodyD, nullptr);
 117:src/main.cpp  ****     printString("ThreadD created\n");
 118:src/main.cpp  **** 
 119:src/main.cpp  **** 
 120:src/main.cpp  ****     while (!(threads[1]->isFinished() && threads[2]->isFinished() &&
 121:src/main.cpp  ****              threads[3]->isFinished() && threads[4]->isFinished())) {
 122:src/main.cpp  ****        // TCB::yield();
 123:src/main.cpp  ****        thread_dispatch();
 124:src/main.cpp  ****     }
 125:src/main.cpp  ****     for (auto &thread: threads) { delete thread; }
 126:src/main.cpp  ****     printString("Finished\n");
 127:src/main.cpp  **** */
 128:src/main.cpp  **** 
 129:src/main.cpp  **** 
 130:src/main.cpp  ****    // changeMod();
 131:src/main.cpp  ****     // Obavezno postaviti prvo fju main kao pocetnu nit
 132:src/main.cpp  ****     thread_t mainThread;
 334              		csrw stvec, a5
 335              	# 0 "" 2
 336              		.loc 1 132 5 is_stmt 1
 133:src/main.cpp  ****     thread_create(&mainThread, nullptr, nullptr);
 337              		.loc 1 133 5
 338              		.loc 1 133 18 is_stmt 0
 339              	#NO_APP
 340 013c 13060000 		li	a2,0
 341 0140 93050000 		li	a1,0
 342 0144 130584FD 		addi	a0,s0,-40
 343              	.LEHB0:
 344 0148 97000000 		call	_Z13thread_createPP3TCBPFvPvES2_@plt
GAS LISTING /tmp/ccLTWeZ9.s 			page 10


 344      E7800000 
 345              	.LVL26:
 134:src/main.cpp  ****     TCB::running = mainThread;
 346              		.loc 1 134 5 is_stmt 1
 347              		.loc 1 134 18 is_stmt 0
 348 0150 97070000 		la	a5,_ZN3TCB7runningE
 348      83B70700 
 349 0158 033784FD 		ld	a4,-40(s0)
 350 015c 23B0E700 		sd	a4,0(a5)
 135:src/main.cpp  **** 
 136:src/main.cpp  **** 
 137:src/main.cpp  ****  //   Thread* thr1 = new Thread(p1, nullptr);
 138:src/main.cpp  **** //    Thread* thr2 = new Thread(p2, nullptr);
 139:src/main.cpp  **** //
 140:src/main.cpp  ****  //   thr1->start(); //thr2->start();
 141:src/main.cpp  **** 
 142:src/main.cpp  ****     Thread* t1 = new IzvedenaThread1();
 351              		.loc 1 142 5 is_stmt 1
 352              		.loc 1 142 38 is_stmt 0
 353 0160 13050001 		li	a0,16
 354 0164 97000000 		call	_Znwm@plt
 354      E7800000 
 355              	.LVL27:
 356              	.LEHE0:
 357 016c 93040500 		mv	s1,a0
 358              	.LVL28:
 359              	.LEHB1:
 360              	.LBB13:
 361              	.LBB14:
  79:src/main.cpp  **** 
 362              		.loc 1 79 30
 363 0170 97000000 		call	_ZN6ThreadC2Ev@plt
 363      E7800000 
 364              	.LVL29:
 365              	.LEHE1:
 366 0178 97070000 		lla	a5,_ZTV15IzvedenaThread1+16
 366      93870700 
 367 0180 23B0F400 		sd	a5,0(s1)
 368              	.LVL30:
 369              	.LBE14:
 370              	.LBE13:
 143:src/main.cpp  **** //
 144:src/main.cpp  ****    t1->start();
 371              		.loc 1 144 4 is_stmt 1
 372              		.loc 1 144 13 is_stmt 0
 373 0184 13850400 		mv	a0,s1
 374              	.LEHB2:
 375 0188 97000000 		call	_ZN6Thread5startEv@plt
 375      E7800000 
 376              	.LVL31:
 377              	.L23:
 145:src/main.cpp  **** //    while(1) {
 146:src/main.cpp  **** //        Thread::dispatch();
 147:src/main.cpp  **** //    }
 148:src/main.cpp  ****     //Thread::dispatch();
 149:src/main.cpp  **** 
 150:src/main.cpp  ****     while (!(finishedP1)) {
GAS LISTING /tmp/ccLTWeZ9.s 			page 11


 378              		.loc 1 150 5 is_stmt 1
 379              		.loc 1 150 12
 380 0190 97070000 		lbu	a5,.LANCHOR0+1
 380      83C70700 
 381 0198 63960702 		bnez	a5,.L21
 151:src/main.cpp  ****         Thread::dispatch();
 382              		.loc 1 151 9
 383              		.loc 1 151 25 is_stmt 0
 384 019c 97000000 		call	_ZN6Thread8dispatchEv@plt
 384      E7800000 
 385              	.LVL32:
 386 01a4 6FF0DFFE 		j	.L23
 387              	.LVL33:
 388              	.L25:
 389 01a8 13090500 		mv	s2,a0
 142:src/main.cpp  **** //
 390              		.loc 1 142 38
 391 01ac 13850400 		mv	a0,s1
 392 01b0 97000000 		call	_ZdlPv@plt
 392      E7800000 
 393              	.LVL34:
 394 01b8 13050900 		mv	a0,s2
 395 01bc 97000000 		call	_Unwind_Resume@plt
 395      E7800000 
 396              	.LVL35:
 397              	.LEHE2:
 398              	.L21:
 152:src/main.cpp  ****     }
 153:src/main.cpp  **** 
 154:src/main.cpp  **** 
 155:src/main.cpp  ****     //  Riscv::mc_sstatus(Riscv::SSTATUS_SPP);
 156:src/main.cpp  **** 
 157:src/main.cpp  **** //    thread_t userThread;
 158:src/main.cpp  **** //  thread_create(&userThread, userWrapperThread, nullptr);
 159:src/main.cpp  **** 
 160:src/main.cpp  **** 
 161:src/main.cpp  **** //   userMain();
 162:src/main.cpp  **** 
 163:src/main.cpp  **** //    while(!userThread->isFinished()) {
 164:src/main.cpp  **** //        thread_dispatch();
 165:src/main.cpp  **** //    }
 166:src/main.cpp  **** 
 167:src/main.cpp  **** 
 168:src/main.cpp  **** /*
 169:src/main.cpp  ****     // postavljen bit 1 (SIE) na 1 => omuguceni prekidi
 170:src/main.cpp  ****     __asm__ volatile ("csrs sstatus, 0x02");
 171:src/main.cpp  **** 
 172:src/main.cpp  ****     testThreadsC();
 173:src/main.cpp  ****     */
 174:src/main.cpp  **** 
 175:src/main.cpp  ****   // printString("\n Vratio se u main\n"); // Treba da se vrati u main! Na console treba da pise "K
 176:src/main.cpp  **** /*
 177:src/main.cpp  **** 
 178:src/main.cpp  **** 
 179:src/main.cpp  ****     if(sem_open(&sem1, 1)) {}
 180:src/main.cpp  **** 
 181:src/main.cpp  ****     Thread* t1 = new Thread(p1, nullptr);
GAS LISTING /tmp/ccLTWeZ9.s 			page 12


 182:src/main.cpp  ****     Thread* t2 = new Thread(p2, nullptr);
 183:src/main.cpp  **** 
 184:src/main.cpp  ****     t1->start(); t2->start();
 185:src/main.cpp  **** 
 186:src/main.cpp  ****     //sem_wait(sem1);https://code-with-me.global.jetbrains.com/nSOVLjqA8sGVbd17C0J6LQ#p=CL&fp=25A6A
 187:src/main.cpp  **** 
 188:src/main.cpp  ****     while(1){
 189:src/main.cpp  ****         thread_dispatch();
 190:src/main.cpp  ****     }*/
 191:src/main.cpp  **** 
 192:src/main.cpp  **** 
 193:src/main.cpp  **** /*    sem_open(&mutex,1);
 194:src/main.cpp  ****     sem_open(&paper,0);
 195:src/main.cpp  ****     sem_open(&matches,0);
 196:src/main.cpp  ****     sem_open(&agent,0);
 197:src/main.cpp  ****     sem_open(&tabacco,0);
 198:src/main.cpp  **** 
 199:src/main.cpp  ****     thread_t t= nullptr;
 200:src/main.cpp  ****     thread_t t1= nullptr;
 201:src/main.cpp  ****     thread_t t2= nullptr;
 202:src/main.cpp  ****     thread_t t3= nullptr;
 203:src/main.cpp  **** 
 204:src/main.cpp  ****     thread_create(&t, agentfun, nullptr);
 205:src/main.cpp  ****     thread_create(&t1, smoker1, nullptr);
 206:src/main.cpp  ****     thread_create(&t2, smoker2, nullptr);
 207:src/main.cpp  ****     thread_create(&t3, smoker3, nullptr);
 208:src/main.cpp  **** 
 209:src/main.cpp  ****     for (int i = 0; i < 31; ++i) {
 210:src/main.cpp  ****         thread_dispatch();
 211:src/main.cpp  ****     }*/
 212:src/main.cpp  **** 
 213:src/main.cpp  **** 
 214:src/main.cpp  **** }
 399              		.loc 1 214 1
 400 01c4 83308102 		ld	ra,40(sp)
 401              		.cfi_restore 1
 402 01c8 03340102 		ld	s0,32(sp)
 403              		.cfi_restore 8
 404              		.cfi_def_cfa 2, 48
 405 01cc 83348101 		ld	s1,24(sp)
 406              		.cfi_restore 9
 407              	.LVL36:
 408 01d0 03390101 		ld	s2,16(sp)
 409              		.cfi_restore 18
 410 01d4 13010103 		addi	sp,sp,48
 411              		.cfi_def_cfa_offset 0
 412 01d8 67800000 		jr	ra
 413              		.cfi_endproc
 414              	.LFE55:
 415              		.globl	__gxx_personality_v0
 416              		.section	.gcc_except_table,"a",@progbits
 417              	.LLSDA55:
 418 0000 FF       		.byte	0xff
 419 0001 FF       		.byte	0xff
 420 0002 03       		.byte	0x3
 421 0003 27       		.byte	0x27
 422 0004 00000000 		.4byte	.LEHB0-.LFB55
GAS LISTING /tmp/ccLTWeZ9.s 			page 13


 423 0008 00000000 		.4byte	.LEHE0-.LEHB0
 424 000c 00000000 		.4byte	0
 425 0010 00       		.byte	0
 426 0011 00000000 		.4byte	.LEHB1-.LFB55
 427 0015 00000000 		.4byte	.LEHE1-.LEHB1
 428 0019 00000000 		.4byte	.L25-.LFB55
 429 001d 00       		.byte	0
 430 001e 00000000 		.4byte	.LEHB2-.LFB55
 431 0022 00000000 		.4byte	.LEHE2-.LEHB2
 432 0026 00000000 		.4byte	0
 433 002a 00       		.byte	0
 434              		.text
 436              		.weak	_ZTV15IzvedenaThread1
 437              		.section	.data.rel.ro.local._ZTV15IzvedenaThread1,"awG",@progbits,_ZTV15IzvedenaThread1,comdat
 438              		.align	3
 441              	_ZTV15IzvedenaThread1:
 442 0000 00000000 		.dword	0
 442      00000000 
 443 0008 00000000 		.dword	0
 443      00000000 
 444 0010 00000000 		.dword	_ZN15IzvedenaThread1D1Ev
 444      00000000 
 445 0018 00000000 		.dword	_ZN15IzvedenaThread1D0Ev
 445      00000000 
 446 0020 00000000 		.dword	_ZN15IzvedenaThread13runEv
 446      00000000 
 447              		.globl	finishedP2
 448              		.globl	finishedP1
 449              		.bss
 450              		.set	.LANCHOR0,. + 0
 453              	finishedP2:
 454 0000 00       		.zero	1
 457              	finishedP1:
 458 0001 00       		.zero	1
 459              		.text
 460              	.Letext0:
 461              		.file 2 "src/../h/../lib/hw.h"
 462              		.file 3 "src/../h/../h/tcb.hpp"
 463              		.file 4 "src/../h/syscall_cpp.hpp"
 464              		.file 5 "src/../h/syscall_c.h"
 465              		.file 6 "src/printing.hpp"
 2876              		.align	3
 2879              	DW.ref.__gxx_personality_v0:
 2880 0000 00000000 		.dword	__gxx_personality_v0
 2880      00000000 
 2881              		.ident	"GCC: (Ubuntu 9.4.0-1ubuntu1~20.04) 9.4.0"
 2882              		.section	.note.GNU-stack,"",@progbits
GAS LISTING /tmp/ccLTWeZ9.s 			page 14


DEFINED SYMBOLS
                            *ABS*:0000000000000000 main.cpp
     /tmp/ccLTWeZ9.s:10     .text._ZN15IzvedenaThread1D2Ev:0000000000000000 _ZN15IzvedenaThread1D2Ev
     /tmp/ccLTWeZ9.s:14     .text._ZN15IzvedenaThread1D2Ev:0000000000000000 .L0 
     /tmp/ccLTWeZ9.s:16     .text._ZN15IzvedenaThread1D2Ev:0000000000000000 .L0 
     /tmp/ccLTWeZ9.s:17     .text._ZN15IzvedenaThread1D2Ev:0000000000000004 .L0 
     /tmp/ccLTWeZ9.s:20     .text._ZN15IzvedenaThread1D2Ev:000000000000000c .L0 
     /tmp/ccLTWeZ9.s:21     .text._ZN15IzvedenaThread1D2Ev:000000000000000c .L0 
     /tmp/ccLTWeZ9.s:23     .text._ZN15IzvedenaThread1D2Ev:0000000000000010 .L0 
     /tmp/ccLTWeZ9.s:441    .data.rel.ro.local._ZTV15IzvedenaThread1:0000000000000000 _ZTV15IzvedenaThread1
     /tmp/ccLTWeZ9.s:26     .text._ZN15IzvedenaThread1D2Ev:0000000000000010 .L0 
     /tmp/ccLTWeZ9.s:32     .text._ZN15IzvedenaThread1D2Ev:0000000000000028 .L0 
     /tmp/ccLTWeZ9.s:34     .text._ZN15IzvedenaThread1D2Ev:000000000000002c .L0 
     /tmp/ccLTWeZ9.s:35     .text._ZN15IzvedenaThread1D2Ev:000000000000002c .L0 
     /tmp/ccLTWeZ9.s:37     .text._ZN15IzvedenaThread1D2Ev:0000000000000030 .L0 
     /tmp/ccLTWeZ9.s:39     .text._ZN15IzvedenaThread1D2Ev:0000000000000034 .L0 
     /tmp/ccLTWeZ9.s:10     .text._ZN15IzvedenaThread1D2Ev:0000000000000000 _ZN15IzvedenaThread1D1Ev
     /tmp/ccLTWeZ9.s:48     .text._ZN15IzvedenaThread1D0Ev:0000000000000000 _ZN15IzvedenaThread1D0Ev
     /tmp/ccLTWeZ9.s:51     .text._ZN15IzvedenaThread1D0Ev:0000000000000000 .L0 
     /tmp/ccLTWeZ9.s:53     .text._ZN15IzvedenaThread1D0Ev:0000000000000000 .L0 
     /tmp/ccLTWeZ9.s:54     .text._ZN15IzvedenaThread1D0Ev:0000000000000004 .L0 
     /tmp/ccLTWeZ9.s:58     .text._ZN15IzvedenaThread1D0Ev:0000000000000010 .L0 
     /tmp/ccLTWeZ9.s:59     .text._ZN15IzvedenaThread1D0Ev:0000000000000010 .L0 
     /tmp/ccLTWeZ9.s:60     .text._ZN15IzvedenaThread1D0Ev:0000000000000010 .L0 
     /tmp/ccLTWeZ9.s:62     .text._ZN15IzvedenaThread1D0Ev:0000000000000014 .L0 
     /tmp/ccLTWeZ9.s:68     .text._ZN15IzvedenaThread1D0Ev:0000000000000018 .L0 
     /tmp/ccLTWeZ9.s:78     .text._ZN15IzvedenaThread1D0Ev:000000000000003c .L0 
     /tmp/ccLTWeZ9.s:80     .text._ZN15IzvedenaThread1D0Ev:0000000000000040 .L0 
     /tmp/ccLTWeZ9.s:81     .text._ZN15IzvedenaThread1D0Ev:0000000000000040 .L0 
     /tmp/ccLTWeZ9.s:83     .text._ZN15IzvedenaThread1D0Ev:0000000000000044 .L0 
     /tmp/ccLTWeZ9.s:86     .text._ZN15IzvedenaThread1D0Ev:0000000000000048 .L0 
     /tmp/ccLTWeZ9.s:88     .text._ZN15IzvedenaThread1D0Ev:000000000000004c .L0 
     /tmp/ccLTWeZ9.s:95     .text:0000000000000000 _Z17userWrapperThreadPv
     /tmp/ccLTWeZ9.s:98     .text:0000000000000000 .L0 
     /tmp/ccLTWeZ9.s:100    .text:0000000000000000 .L0 
     /tmp/ccLTWeZ9.s:101    .text:0000000000000004 .L0 
     /tmp/ccLTWeZ9.s:104    .text:000000000000000c .L0 
     /tmp/ccLTWeZ9.s:105    .text:000000000000000c .L0 
     /tmp/ccLTWeZ9.s:107    .text:0000000000000010 .L0 
     /tmp/ccLTWeZ9.s:109    .text:0000000000000010 .L0 
     /tmp/ccLTWeZ9.s:110    .text:0000000000000010 .L0 
     /tmp/ccLTWeZ9.s:113    .text:0000000000000018 .L0 
     /tmp/ccLTWeZ9.s:114    .text:000000000000001c .L0 
     /tmp/ccLTWeZ9.s:116    .text:0000000000000020 .L0 
     /tmp/ccLTWeZ9.s:117    .text:0000000000000020 .L0 
     /tmp/ccLTWeZ9.s:119    .text:0000000000000024 .L0 
     /tmp/ccLTWeZ9.s:121    .text:0000000000000028 .L0 
     /tmp/ccLTWeZ9.s:132    .text:0000000000000028 _Z2p1Pv
     /tmp/ccLTWeZ9.s:135    .text:0000000000000028 .L0 
     /tmp/ccLTWeZ9.s:136    .text:0000000000000028 .L0 
     /tmp/ccLTWeZ9.s:137    .text:000000000000002c .L0 
     /tmp/ccLTWeZ9.s:141    .text:0000000000000038 .L0 
     /tmp/ccLTWeZ9.s:142    .text:0000000000000038 .L0 
     /tmp/ccLTWeZ9.s:143    .text:0000000000000038 .L0 
     /tmp/ccLTWeZ9.s:145    .text:000000000000003c .L0 
     /tmp/ccLTWeZ9.s:149    .text:000000000000003c .L0 
     /tmp/ccLTWeZ9.s:150    .text:000000000000003c .L0 
GAS LISTING /tmp/ccLTWeZ9.s 			page 15


     /tmp/ccLTWeZ9.s:155    .text:0000000000000044 .L0 
     /tmp/ccLTWeZ9.s:156    .text:0000000000000044 .L0 
     /tmp/ccLTWeZ9.s:160    .text:000000000000004c .L0 
     /tmp/ccLTWeZ9.s:161    .text:000000000000004c .L0 
     /tmp/ccLTWeZ9.s:167    .text:0000000000000060 .L0 
     /tmp/ccLTWeZ9.s:168    .text:0000000000000060 .L0 
     /tmp/ccLTWeZ9.s:172    .text:0000000000000070 .L0 
     /tmp/ccLTWeZ9.s:176    .text:0000000000000074 .L0 
     /tmp/ccLTWeZ9.s:179    .text:000000000000007c .L0 
     /tmp/ccLTWeZ9.s:185    .text:0000000000000088 .L0 
     /tmp/ccLTWeZ9.s:186    .text:000000000000008c .L0 
     /tmp/ccLTWeZ9.s:188    .text:0000000000000090 .L0 
     /tmp/ccLTWeZ9.s:189    .text:0000000000000090 .L0 
     /tmp/ccLTWeZ9.s:191    .text:0000000000000094 .L0 
     /tmp/ccLTWeZ9.s:194    .text:0000000000000098 .L0 
     /tmp/ccLTWeZ9.s:196    .text:000000000000009c .L0 
     /tmp/ccLTWeZ9.s:203    .text._ZN15IzvedenaThread13runEv:0000000000000000 _ZN15IzvedenaThread13runEv
     /tmp/ccLTWeZ9.s:206    .text._ZN15IzvedenaThread13runEv:0000000000000000 .L0 
     /tmp/ccLTWeZ9.s:208    .text._ZN15IzvedenaThread13runEv:0000000000000000 .L0 
     /tmp/ccLTWeZ9.s:209    .text._ZN15IzvedenaThread13runEv:0000000000000004 .L0 
     /tmp/ccLTWeZ9.s:212    .text._ZN15IzvedenaThread13runEv:000000000000000c .L0 
     /tmp/ccLTWeZ9.s:213    .text._ZN15IzvedenaThread13runEv:000000000000000c .L0 
     /tmp/ccLTWeZ9.s:215    .text._ZN15IzvedenaThread13runEv:0000000000000010 .L0 
     /tmp/ccLTWeZ9.s:217    .text._ZN15IzvedenaThread13runEv:0000000000000010 .L0 
     /tmp/ccLTWeZ9.s:218    .text._ZN15IzvedenaThread13runEv:0000000000000010 .L0 
     /tmp/ccLTWeZ9.s:223    .text._ZN15IzvedenaThread13runEv:000000000000001c .L0 
     /tmp/ccLTWeZ9.s:224    .text._ZN15IzvedenaThread13runEv:0000000000000020 .L0 
     /tmp/ccLTWeZ9.s:226    .text._ZN15IzvedenaThread13runEv:0000000000000024 .L0 
     /tmp/ccLTWeZ9.s:227    .text._ZN15IzvedenaThread13runEv:0000000000000024 .L0 
     /tmp/ccLTWeZ9.s:229    .text._ZN15IzvedenaThread13runEv:0000000000000028 .L0 
     /tmp/ccLTWeZ9.s:231    .text._ZN15IzvedenaThread13runEv:000000000000002c .L0 
     /tmp/ccLTWeZ9.s:238    .text:000000000000009c _Z2p2Pv
     /tmp/ccLTWeZ9.s:241    .text:000000000000009c .L0 
     /tmp/ccLTWeZ9.s:242    .text:000000000000009c .L0 
     /tmp/ccLTWeZ9.s:243    .text:00000000000000a0 .L0 
     /tmp/ccLTWeZ9.s:247    .text:00000000000000ac .L0 
     /tmp/ccLTWeZ9.s:248    .text:00000000000000ac .L0 
     /tmp/ccLTWeZ9.s:249    .text:00000000000000ac .L0 
     /tmp/ccLTWeZ9.s:251    .text:00000000000000b0 .L0 
     /tmp/ccLTWeZ9.s:255    .text:00000000000000b0 .L0 
     /tmp/ccLTWeZ9.s:256    .text:00000000000000b0 .L0 
     /tmp/ccLTWeZ9.s:261    .text:00000000000000b8 .L0 
     /tmp/ccLTWeZ9.s:262    .text:00000000000000b8 .L0 
     /tmp/ccLTWeZ9.s:266    .text:00000000000000c0 .L0 
     /tmp/ccLTWeZ9.s:267    .text:00000000000000c0 .L0 
     /tmp/ccLTWeZ9.s:273    .text:00000000000000d4 .L0 
     /tmp/ccLTWeZ9.s:274    .text:00000000000000d4 .L0 
     /tmp/ccLTWeZ9.s:278    .text:00000000000000e4 .L0 
     /tmp/ccLTWeZ9.s:282    .text:00000000000000e8 .L0 
     /tmp/ccLTWeZ9.s:284    .text:00000000000000ec .L0 
     /tmp/ccLTWeZ9.s:290    .text:00000000000000f8 .L0 
     /tmp/ccLTWeZ9.s:291    .text:00000000000000f8 .L0 
     /tmp/ccLTWeZ9.s:294    .text:0000000000000104 .L0 
     /tmp/ccLTWeZ9.s:295    .text:0000000000000108 .L0 
     /tmp/ccLTWeZ9.s:297    .text:000000000000010c .L0 
     /tmp/ccLTWeZ9.s:298    .text:000000000000010c .L0 
     /tmp/ccLTWeZ9.s:300    .text:0000000000000110 .L0 
GAS LISTING /tmp/ccLTWeZ9.s 			page 16


     /tmp/ccLTWeZ9.s:303    .text:0000000000000114 .L0 
     /tmp/ccLTWeZ9.s:305    .text:0000000000000118 .L0 
     /tmp/ccLTWeZ9.s:311    .text:0000000000000118 main
     /tmp/ccLTWeZ9.s:314    .text:0000000000000118 .L0 
     /tmp/ccLTWeZ9.s:2879   .data.rel.local.DW.ref.__gxx_personality_v0:0000000000000000 DW.ref.__gxx_personality_v0
     /tmp/ccLTWeZ9.s:317    .text:0000000000000118 .L0 
     /tmp/ccLTWeZ9.s:318    .text:000000000000011c .L0 
     /tmp/ccLTWeZ9.s:323    .text:000000000000012c .L0 
     /tmp/ccLTWeZ9.s:324    .text:000000000000012c .L0 
     /tmp/ccLTWeZ9.s:325    .text:000000000000012c .L0 
     /tmp/ccLTWeZ9.s:326    .text:000000000000012c .L0 
     /tmp/ccLTWeZ9.s:328    .text:0000000000000130 .L0 
     /tmp/ccLTWeZ9.s:330    .text:0000000000000130 .L0 
     /tmp/ccLTWeZ9.s:331    .text:0000000000000130 .L0 
     /tmp/ccLTWeZ9.s:337    .text:000000000000013c .L0 
     /tmp/ccLTWeZ9.s:338    .text:000000000000013c .L0 
     /tmp/ccLTWeZ9.s:340    .text:000000000000013c .L0 
     /tmp/ccLTWeZ9.s:347    .text:0000000000000150 .L0 
     /tmp/ccLTWeZ9.s:348    .text:0000000000000150 .L0 
     /tmp/ccLTWeZ9.s:352    .text:0000000000000160 .L0 
     /tmp/ccLTWeZ9.s:353    .text:0000000000000160 .L0 
     /tmp/ccLTWeZ9.s:363    .text:0000000000000170 .L0 
     /tmp/ccLTWeZ9.s:372    .text:0000000000000184 .L0 
     /tmp/ccLTWeZ9.s:373    .text:0000000000000184 .L0 
     /tmp/ccLTWeZ9.s:379    .text:0000000000000190 .L0 
     /tmp/ccLTWeZ9.s:380    .text:0000000000000190 .L0 
     /tmp/ccLTWeZ9.s:383    .text:000000000000019c .L0 
     /tmp/ccLTWeZ9.s:384    .text:000000000000019c .L0 
     /tmp/ccLTWeZ9.s:391    .text:00000000000001ac .L0 
     /tmp/ccLTWeZ9.s:400    .text:00000000000001c4 .L0 
     /tmp/ccLTWeZ9.s:401    .text:00000000000001c8 .L0 
     /tmp/ccLTWeZ9.s:403    .text:00000000000001cc .L0 
     /tmp/ccLTWeZ9.s:404    .text:00000000000001cc .L0 
     /tmp/ccLTWeZ9.s:406    .text:00000000000001d0 .L0 
     /tmp/ccLTWeZ9.s:409    .text:00000000000001d4 .L0 
     /tmp/ccLTWeZ9.s:411    .text:00000000000001d8 .L0 
     /tmp/ccLTWeZ9.s:413    .text:00000000000001dc .L0 
     /tmp/ccLTWeZ9.s:453    .bss:0000000000000000 finishedP2
     /tmp/ccLTWeZ9.s:457    .bss:0000000000000001 finishedP1
     /tmp/ccLTWeZ9.s:450    .bss:0000000000000000 .LANCHOR0
     /tmp/ccLTWeZ9.s:44     .text._ZN15IzvedenaThread1D2Ev:0000000000000034 .L0 
     /tmp/ccLTWeZ9.s:91     .text._ZN15IzvedenaThread1D0Ev:000000000000004c .L0 
     /tmp/ccLTWeZ9.s:466    .text:00000000000001dc .L0 
     /tmp/ccLTWeZ9.s:234    .text._ZN15IzvedenaThread13runEv:000000000000002c .L0 
     /tmp/ccLTWeZ9.s:126    .rodata.str1.8:0000000000000000 .LC0
     /tmp/ccLTWeZ9.s:168    .text:0000000000000060 .L0 
     /tmp/ccLTWeZ9.s:274    .text:00000000000000d4 .L0 
     /tmp/ccLTWeZ9.s:292    .text:00000000000000fc .L0 
     /tmp/ccLTWeZ9.s:331    .text:0000000000000130 .L0 
     /tmp/ccLTWeZ9.s:348    .text:0000000000000150 .L0 
     /tmp/ccLTWeZ9.s:366    .text:0000000000000178 .L0 
     /tmp/ccLTWeZ9.s:380    .text:0000000000000190 .L0 
     /tmp/ccLTWeZ9.s:174    .text:0000000000000074 .L10
     /tmp/ccLTWeZ9.s:182    .text:0000000000000088 .L7
     /tmp/ccLTWeZ9.s:158    .text:000000000000004c .L9
     /tmp/ccLTWeZ9.s:153    .text:0000000000000044 .L12
     /tmp/ccLTWeZ9.s:280    .text:00000000000000e8 .L18
GAS LISTING /tmp/ccLTWeZ9.s 			page 17


     /tmp/ccLTWeZ9.s:287    .text:00000000000000f8 .L16
     /tmp/ccLTWeZ9.s:264    .text:00000000000000c0 .L17
     /tmp/ccLTWeZ9.s:259    .text:00000000000000b8 .L20
     /tmp/ccLTWeZ9.s:398    .text:00000000000001c4 .L21
     /tmp/ccLTWeZ9.s:377    .text:0000000000000190 .L23
     /tmp/ccLTWeZ9.s:26     .text._ZN15IzvedenaThread1D2Ev:0000000000000010 .L0 
     /tmp/ccLTWeZ9.s:68     .text._ZN15IzvedenaThread1D0Ev:0000000000000018 .L0 
     /tmp/ccLTWeZ9.s:343    .text:0000000000000148 .LEHB0
     /tmp/ccLTWeZ9.s:312    .text:0000000000000118 .LFB55
     /tmp/ccLTWeZ9.s:356    .text:000000000000016c .LEHE0
     /tmp/ccLTWeZ9.s:359    .text:0000000000000170 .LEHB1
     /tmp/ccLTWeZ9.s:365    .text:0000000000000178 .LEHE1
     /tmp/ccLTWeZ9.s:388    .text:00000000000001a8 .L25
     /tmp/ccLTWeZ9.s:374    .text:0000000000000188 .LEHB2
     /tmp/ccLTWeZ9.s:397    .text:00000000000001c4 .LEHE2
     /tmp/ccLTWeZ9.s:1501   .debug_abbrev:0000000000000000 .Ldebug_abbrev0
     /tmp/ccLTWeZ9.s:2825   .debug_str:00000000000004f0 .LASF90
     /tmp/ccLTWeZ9.s:2711   .debug_str:0000000000000175 .LASF91
     /tmp/ccLTWeZ9.s:2845   .debug_str:0000000000000650 .LASF92
     /tmp/ccLTWeZ9.s:2651   .debug_ranges:0000000000000000 .Ldebug_ranges0
     /tmp/ccLTWeZ9.s:2663   .debug_line:0000000000000000 .Ldebug_line0
     /tmp/ccLTWeZ9.s:2733   .debug_str:0000000000000230 .LASF0
     /tmp/ccLTWeZ9.s:2749   .debug_str:00000000000002ca .LASF1
     /tmp/ccLTWeZ9.s:2785   .debug_str:00000000000003c4 .LASF2
     /tmp/ccLTWeZ9.s:2787   .debug_str:00000000000003d2 .LASF4
     /tmp/ccLTWeZ9.s:2743   .debug_str:000000000000028a .LASF3
     /tmp/ccLTWeZ9.s:2675   .debug_str:0000000000000053 .LASF5
     /tmp/ccLTWeZ9.s:2773   .debug_str:000000000000036e .LASF6
     /tmp/ccLTWeZ9.s:2745   .debug_str:000000000000029c .LASF7
     /tmp/ccLTWeZ9.s:2715   .debug_str:0000000000000187 .LASF8
     /tmp/ccLTWeZ9.s:2723   .debug_str:00000000000001d3 .LASF9
     /tmp/ccLTWeZ9.s:2683   .debug_str:0000000000000084 .LASF10
     /tmp/ccLTWeZ9.s:2709   .debug_str:0000000000000166 .LASF11
     /tmp/ccLTWeZ9.s:2689   .debug_str:00000000000000ac .LASF12
     /tmp/ccLTWeZ9.s:2681   .debug_str:0000000000000074 .LASF13
     /tmp/ccLTWeZ9.s:2807   .debug_str:0000000000000478 .LASF14
     /tmp/ccLTWeZ9.s:2699   .debug_str:0000000000000107 .LASF15
     /tmp/ccLTWeZ9.s:2801   .debug_str:0000000000000442 .LASF16
     /tmp/ccLTWeZ9.s:2811   .debug_str:000000000000049f .LASF93
     /tmp/ccLTWeZ9.s:2695   .debug_str:00000000000000e2 .LASF37
     /tmp/ccLTWeZ9.s:2685   .debug_str:0000000000000093 .LASF39
     /tmp/ccLTWeZ9.s:2789   .debug_str:00000000000003d9 .LASF21
     /tmp/ccLTWeZ9.s:2671   .debug_str:000000000000003d .LASF23
     /tmp/ccLTWeZ9.s:2813   .debug_str:00000000000004a7 .LASF17
     /tmp/ccLTWeZ9.s:2763   .debug_str:000000000000032b .LASF19
     /tmp/ccLTWeZ9.s:2717   .debug_str:0000000000000197 .LASF18
     /tmp/ccLTWeZ9.s:2815   .debug_str:00000000000004b2 .LASF20
     /tmp/ccLTWeZ9.s:2677   .debug_str:000000000000005a .LASF22
     /tmp/ccLTWeZ9.s:2835   .debug_str:00000000000005e8 .LASF24
     /tmp/ccLTWeZ9.s:2781   .debug_str:00000000000003ac .LASF25
     /tmp/ccLTWeZ9.s:2729   .debug_str:000000000000020b .LASF26
     /tmp/ccLTWeZ9.s:2755   .debug_str:00000000000002f6 .LASF27
     /tmp/ccLTWeZ9.s:2843   .debug_str:0000000000000637 .LASF28
     /tmp/ccLTWeZ9.s:2805   .debug_str:000000000000046b .LASF29
     /tmp/ccLTWeZ9.s:2725   .debug_str:00000000000001e1 .LASF30
     /tmp/ccLTWeZ9.s:2769   .debug_str:0000000000000353 .LASF94
     /tmp/ccLTWeZ9.s:2863   .debug_str:00000000000006cc .LASF31
GAS LISTING /tmp/ccLTWeZ9.s 			page 18


     /tmp/ccLTWeZ9.s:2741   .debug_str:000000000000026b .LASF32
     /tmp/ccLTWeZ9.s:2839   .debug_str:0000000000000619 .LASF33
     /tmp/ccLTWeZ9.s:2721   .debug_str:00000000000001b3 .LASF34
     /tmp/ccLTWeZ9.s:2847   .debug_str:000000000000066b .LASF35
     /tmp/ccLTWeZ9.s:2809   .debug_str:0000000000000484 .LASF36
     /tmp/ccLTWeZ9.s:2751   .debug_str:00000000000002dd .LASF38
     /tmp/ccLTWeZ9.s:2827   .debug_str:00000000000005b4 .LASF40
     /tmp/ccLTWeZ9.s:2823   .debug_str:00000000000004e8 .LASF95
     /tmp/ccLTWeZ9.s:2797   .debug_str:0000000000000421 .LASF96
     /tmp/ccLTWeZ9.s:2783   .debug_str:00000000000003b9 .LASF41
     /tmp/ccLTWeZ9.s:2735   .debug_str:000000000000023d .LASF97
     /tmp/ccLTWeZ9.s:2665   .debug_str:0000000000000000 .LASF42
     /tmp/ccLTWeZ9.s:2861   .debug_str:00000000000006c6 .LASF43
     /tmp/ccLTWeZ9.s:2833   .debug_str:00000000000005e0 .LASF44
     /tmp/ccLTWeZ9.s:2829   .debug_str:00000000000005c4 .LASF45
     /tmp/ccLTWeZ9.s:2799   .debug_str:0000000000000439 .LASF46
     /tmp/ccLTWeZ9.s:2765   .debug_str:0000000000000342 .LASF47
     /tmp/ccLTWeZ9.s:2687   .debug_str:00000000000000a6 .LASF48
     /tmp/ccLTWeZ9.s:2679   .debug_str:0000000000000066 .LASF49
     /tmp/ccLTWeZ9.s:2837   .debug_str:00000000000005ff .LASF51
     /tmp/ccLTWeZ9.s:2691   .debug_str:00000000000000bc .LASF50
     /tmp/ccLTWeZ9.s:2669   .debug_str:0000000000000015 .LASF52
     /tmp/ccLTWeZ9.s:2791   .debug_str:00000000000003de .LASF98
     /tmp/ccLTWeZ9.s:2849   .debug_str:0000000000000679 .LASF99
     /tmp/ccLTWeZ9.s:2869   .debug_str:00000000000006e8 .LASF53
     /tmp/ccLTWeZ9.s:2757   .debug_str:0000000000000303 .LASF54
     /tmp/ccLTWeZ9.s:2817   .debug_str:00000000000004ca .LASF55
     /tmp/ccLTWeZ9.s:2737   .debug_str:0000000000000255 .LASF56
     /tmp/ccLTWeZ9.s:2739   .debug_str:0000000000000260 .LASF57
     /tmp/ccLTWeZ9.s:2727   .debug_str:0000000000000204 .LASF100
     /tmp/ccLTWeZ9.s:2753   .debug_str:00000000000002e3 .LASF58
     /tmp/ccLTWeZ9.s:2859   .debug_str:00000000000006c0 .LASF60
     /tmp/ccLTWeZ9.s:2771   .debug_str:0000000000000358 .LASF59
     /tmp/ccLTWeZ9.s:2719   .debug_str:00000000000001a3 .LASF61
     /tmp/ccLTWeZ9.s:2707   .debug_str:000000000000014b .LASF62
     /tmp/ccLTWeZ9.s:2697   .debug_str:00000000000000eb .LASF63
     /tmp/ccLTWeZ9.s:2793   .debug_str:00000000000003ef .LASF64
     /tmp/ccLTWeZ9.s:2747   .debug_str:00000000000002af .LASF101
     /tmp/ccLTWeZ9.s:2821   .debug_str:00000000000004d7 .LASF65
     /tmp/ccLTWeZ9.s:2701   .debug_str:000000000000011d .LASF102
     /tmp/ccLTWeZ9.s:2713   .debug_str:0000000000000182 .LASF66
     /tmp/ccLTWeZ9.s:2673   .debug_str:0000000000000049 .LASF67
     /tmp/ccLTWeZ9.s:2851   .debug_str:0000000000000684 .LASF68
     /tmp/ccLTWeZ9.s:49     .text._ZN15IzvedenaThread1D0Ev:0000000000000000 .LFB63
     /tmp/ccLTWeZ9.s:89     .text._ZN15IzvedenaThread1D0Ev:000000000000004c .LFE63
     /tmp/ccLTWeZ9.s:2515   .debug_loc:0000000000000000 .LLST1
     /tmp/ccLTWeZ9.s:65     .text._ZN15IzvedenaThread1D0Ev:0000000000000018 .LBB9
     /tmp/ccLTWeZ9.s:73     .text._ZN15IzvedenaThread1D0Ev:000000000000002c .LBE9
     /tmp/ccLTWeZ9.s:2533   .debug_loc:000000000000004c .LLST2
     /tmp/ccLTWeZ9.s:71     .text._ZN15IzvedenaThread1D0Ev:000000000000002c .LVL4
     /tmp/ccLTWeZ9.s:76     .text._ZN15IzvedenaThread1D0Ev:0000000000000038 .LVL5
     /tmp/ccLTWeZ9.s:2779   .debug_str:0000000000000393 .LASF69
     /tmp/ccLTWeZ9.s:11     .text._ZN15IzvedenaThread1D2Ev:0000000000000000 .LFB61
     /tmp/ccLTWeZ9.s:40     .text._ZN15IzvedenaThread1D2Ev:0000000000000034 .LFE61
     /tmp/ccLTWeZ9.s:2544   .debug_loc:0000000000000082 .LLST0
     /tmp/ccLTWeZ9.s:29     .text._ZN15IzvedenaThread1D2Ev:0000000000000024 .LVL1
     /tmp/ccLTWeZ9.s:2865   .debug_str:00000000000006d6 .LASF70
GAS LISTING /tmp/ccLTWeZ9.s 			page 19


     /tmp/ccLTWeZ9.s:414    .text:00000000000001dc .LFE55
     /tmp/ccLTWeZ9.s:2761   .debug_str:0000000000000320 .LASF71
     /tmp/ccLTWeZ9.s:2558   .debug_loc:00000000000000bb .LLST7
     /tmp/ccLTWeZ9.s:360    .text:0000000000000170 .LBB13
     /tmp/ccLTWeZ9.s:370    .text:0000000000000184 .LBE13
     /tmp/ccLTWeZ9.s:2569   .debug_loc:00000000000000f1 .LLST8
     /tmp/ccLTWeZ9.s:364    .text:0000000000000178 .LVL29
     /tmp/ccLTWeZ9.s:345    .text:0000000000000150 .LVL26
     /tmp/ccLTWeZ9.s:355    .text:000000000000016c .LVL27
     /tmp/ccLTWeZ9.s:376    .text:0000000000000190 .LVL31
     /tmp/ccLTWeZ9.s:385    .text:00000000000001a4 .LVL32
     /tmp/ccLTWeZ9.s:393    .text:00000000000001b8 .LVL34
     /tmp/ccLTWeZ9.s:396    .text:00000000000001c4 .LVL35
     /tmp/ccLTWeZ9.s:204    .text._ZN15IzvedenaThread13runEv:0000000000000000 .LFB50
     /tmp/ccLTWeZ9.s:232    .text._ZN15IzvedenaThread13runEv:000000000000002c .LFE50
     /tmp/ccLTWeZ9.s:2580   .debug_loc:0000000000000127 .LLST5
     /tmp/ccLTWeZ9.s:221    .text._ZN15IzvedenaThread13runEv:000000000000001c .LVL18
     /tmp/ccLTWeZ9.s:2795   .debug_str:0000000000000408 .LASF103
     /tmp/ccLTWeZ9.s:2819   .debug_str:00000000000004cf .LASF72
     /tmp/ccLTWeZ9.s:239    .text:000000000000009c .LFB46
     /tmp/ccLTWeZ9.s:306    .text:0000000000000118 .LFE46
     /tmp/ccLTWeZ9.s:254    .text:00000000000000b0 .LBB12
     /tmp/ccLTWeZ9.s:288    .text:00000000000000f8 .LBE12
     /tmp/ccLTWeZ9.s:2594   .debug_loc:0000000000000160 .LLST6
     /tmp/ccLTWeZ9.s:263    .text:00000000000000c0 .LVL21
     /tmp/ccLTWeZ9.s:271    .text:00000000000000d4 .LVL22
     /tmp/ccLTWeZ9.s:276    .text:00000000000000e4 .LVL23
     /tmp/ccLTWeZ9.s:2855   .debug_str:00000000000006a9 .LASF73
     /tmp/ccLTWeZ9.s:133    .text:0000000000000028 .LFB45
     /tmp/ccLTWeZ9.s:197    .text:000000000000009c .LFE45
     /tmp/ccLTWeZ9.s:148    .text:000000000000003c .LBB11
     /tmp/ccLTWeZ9.s:183    .text:0000000000000088 .LBE11
     /tmp/ccLTWeZ9.s:2606   .debug_loc:0000000000000197 .LLST4
     /tmp/ccLTWeZ9.s:157    .text:000000000000004c .LVL11
     /tmp/ccLTWeZ9.s:165    .text:0000000000000060 .LVL12
     /tmp/ccLTWeZ9.s:170    .text:0000000000000070 .LVL13
     /tmp/ccLTWeZ9.s:2831   .debug_str:00000000000005ce .LASF74
     /tmp/ccLTWeZ9.s:2759   .debug_str:0000000000000308 .LASF75
     /tmp/ccLTWeZ9.s:96     .text:0000000000000000 .LFB44
     /tmp/ccLTWeZ9.s:122    .text:0000000000000028 .LFE44
     /tmp/ccLTWeZ9.s:2618   .debug_loc:00000000000001ce .LLST3
     /tmp/ccLTWeZ9.s:111    .text:0000000000000018 .LVL8
     /tmp/ccLTWeZ9.s:2767   .debug_str:000000000000034c .LASF80
     /tmp/ccLTWeZ9.s:2667   .debug_str:0000000000000005 .LASF82
     /tmp/ccLTWeZ9.s:2871   .debug_str:00000000000006f1 .LASF76
     /tmp/ccLTWeZ9.s:2841   .debug_str:0000000000000629 .LASF77
     /tmp/ccLTWeZ9.s:2705   .debug_str:0000000000000145 .LASF78
     /tmp/ccLTWeZ9.s:2867   .debug_str:00000000000006db .LASF79
     /tmp/ccLTWeZ9.s:2857   .debug_str:00000000000006b1 .LASF81
     /tmp/ccLTWeZ9.s:2693   .debug_str:00000000000000ca .LASF83
     /tmp/ccLTWeZ9.s:2703   .debug_str:0000000000000136 .LASF84
     /tmp/ccLTWeZ9.s:2775   .debug_str:0000000000000381 .LASF85
     /tmp/ccLTWeZ9.s:2803   .debug_str:0000000000000458 .LASF86
     /tmp/ccLTWeZ9.s:2853   .debug_str:000000000000069d .LASF87
     /tmp/ccLTWeZ9.s:2731   .debug_str:0000000000000223 .LASF88
     /tmp/ccLTWeZ9.s:2777   .debug_str:000000000000038a .LASF89
     /tmp/ccLTWeZ9.s:52     .text._ZN15IzvedenaThread1D0Ev:0000000000000000 .LVL2
GAS LISTING /tmp/ccLTWeZ9.s 			page 20


     /tmp/ccLTWeZ9.s:84     .text._ZN15IzvedenaThread1D0Ev:0000000000000044 .LVL6
     /tmp/ccLTWeZ9.s:64     .text._ZN15IzvedenaThread1D0Ev:0000000000000018 .LVL3
     /tmp/ccLTWeZ9.s:15     .text._ZN15IzvedenaThread1D2Ev:0000000000000000 .LVL0
     /tmp/ccLTWeZ9.s:368    .text:0000000000000184 .LVL30
     /tmp/ccLTWeZ9.s:387    .text:00000000000001a8 .LVL33
     /tmp/ccLTWeZ9.s:407    .text:00000000000001d0 .LVL36
     /tmp/ccLTWeZ9.s:358    .text:0000000000000170 .LVL28
     /tmp/ccLTWeZ9.s:207    .text._ZN15IzvedenaThread13runEv:0000000000000000 .LVL16
     /tmp/ccLTWeZ9.s:219    .text._ZN15IzvedenaThread13runEv:0000000000000014 .LVL17
     /tmp/ccLTWeZ9.s:253    .text:00000000000000b0 .LVL19
     /tmp/ccLTWeZ9.s:258    .text:00000000000000b8 .LVL20
     /tmp/ccLTWeZ9.s:301    .text:0000000000000110 .LVL25
     /tmp/ccLTWeZ9.s:147    .text:000000000000003c .LVL9
     /tmp/ccLTWeZ9.s:152    .text:0000000000000044 .LVL10
     /tmp/ccLTWeZ9.s:192    .text:0000000000000094 .LVL15
     /tmp/ccLTWeZ9.s:99     .text:0000000000000000 .LVL7
     /tmp/ccLTWeZ9.s:467    .debug_info:0000000000000000 .Ldebug_info0
     /tmp/ccLTWeZ9.s:5      .text:0000000000000000 .Ltext0
     /tmp/ccLTWeZ9.s:460    .text:00000000000001dc .Letext0
     /tmp/ccLTWeZ9.s:417    .gcc_except_table:0000000000000000 .LLSDA55
                           .group:0000000000000000 _ZN15IzvedenaThread1D5Ev

UNDEFINED SYMBOLS
_ZN6ThreadD2Ev
_ZdlPv
_Z8userMainv
_ZN6Thread8dispatchEv
_Z8printIntiii
_Z11printStringPKc
_ZN5Riscv14supervisorTrapEv
_Z13thread_createPP3TCBPFvPvES2_
_ZN3TCB7runningE
_Znwm
_ZN6ThreadC2Ev
_ZN6Thread5startEv
_Unwind_Resume
__gxx_personality_v0
