GAS LISTING /tmp/ccI4CSnj.s 			page 1


   1              		.file	"main.cpp"
   2              		.option pic
   3              		.option norelax
   4              		.text
   5              	.Ltext0:
   6              		.align	2
   7              		.globl	_Z17userWrapperThreadPv
   9              	_Z17userWrapperThreadPv:
  10              	.LFB44:
  11              		.file 1 "src/main.cpp"
   1:src/main.cpp  **** #include "../lib/console.h"
   2:src/main.cpp  **** #include "printing.hpp"
   3:src/main.cpp  **** #include "../h/list.hpp"
   4:src/main.cpp  **** #include "../h/syscall_c.h"
   5:src/main.cpp  **** #include "../h/syscallCode.hpp"
   6:src/main.cpp  **** #include "../h/riscv.hpp"
   7:src/main.cpp  **** #include "../h/memoryAllocator.hpp"
   8:src/main.cpp  **** #include "../lib/mem.h"
   9:src/main.cpp  **** //#include "../h/workers.hpp"
  10:src/main.cpp  **** #include "../h/tcb.hpp"
  11:src/main.cpp  **** #include "../h/syscall_cpp.hpp"
  12:src/main.cpp  **** 
  13:src/main.cpp  **** 
  14:src/main.cpp  **** /*sem_t sem1;
  15:src/main.cpp  **** 
  16:src/main.cpp  **** void p1(void *){
  17:src/main.cpp  ****     sem_wait(sem1);
  18:src/main.cpp  **** 
  19:src/main.cpp  ****     printString("\nNitA usla");
  20:src/main.cpp  **** 
  21:src/main.cpp  ****     TCB::yield();
  22:src/main.cpp  **** 
  23:src/main.cpp  ****     //printString("\nNitA ponovo usla");
  24:src/main.cpp  **** 
  25:src/main.cpp  ****     sem_signal(sem1);
  26:src/main.cpp  **** }
  27:src/main.cpp  **** 
  28:src/main.cpp  **** void p2(void *){
  29:src/main.cpp  ****     printString("\nNitB nije usla");
  30:src/main.cpp  **** 
  31:src/main.cpp  ****     sem_wait(sem1);
  32:src/main.cpp  **** 
  33:src/main.cpp  ****     printString("\nNitB usla");
  34:src/main.cpp  **** 
  35:src/main.cpp  ****     TCB::yield();
  36:src/main.cpp  **** }*/
  37:src/main.cpp  **** extern void userMain();
  38:src/main.cpp  **** 
  39:src/main.cpp  **** void userWrapperThread(void* arg) {
  12              		.loc 1 39 35
  13              		.cfi_startproc
  14              	.LVL0:
  15 0000 130101FF 		addi	sp,sp,-16
  16              		.cfi_def_cfa_offset 16
  17 0004 23341100 		sd	ra,8(sp)
  18 0008 23308100 		sd	s0,0(sp)
  19              		.cfi_offset 1, -8
GAS LISTING /tmp/ccI4CSnj.s 			page 2


  20              		.cfi_offset 8, -16
  21 000c 13040101 		addi	s0,sp,16
  22              		.cfi_def_cfa 8, 0
  40:src/main.cpp  ****     userMain();
  23              		.loc 1 40 5
  24              		.loc 1 40 13 is_stmt 0
  25 0010 97000000 		call	_Z8userMainv@plt
  25      E7800000 
  26              	.LVL1:
  41:src/main.cpp  **** }
  27              		.loc 1 41 1
  28 0018 83308100 		ld	ra,8(sp)
  29              		.cfi_restore 1
  30 001c 03340100 		ld	s0,0(sp)
  31              		.cfi_restore 8
  32              		.cfi_def_cfa 2, 16
  33 0020 13010101 		addi	sp,sp,16
  34              		.cfi_def_cfa_offset 0
  35 0024 67800000 		jr	ra
  36              		.cfi_endproc
  37              	.LFE44:
  39              		.section	.rodata.str1.8,"aMS",@progbits,1
  40              		.align	3
  41              	.LC0:
  42 0000 0A757365 		.string	"\nuserThread: "
  42      72546872 
  42      6561643A 
  42      2000
  43 000e 0000     		.align	3
  44              	.LC1:
  45 0010 47726573 		.string	"Greska"
  45      6B6100
  46 0017 00       		.align	3
  47              	.LC2:
  48 0018 0A205672 		.string	"\n Vratio se u main"
  48      6174696F 
  48      20736520 
  48      75206D61 
  48      696E00
  49              		.text
  50              		.align	2
  51              		.globl	main
  53              	main:
  54              	.LFB45:
  42:src/main.cpp  **** 
  43:src/main.cpp  **** void main() {
  55              		.loc 1 43 13 is_stmt 1
  56              		.cfi_startproc
  57 0028 130101FD 		addi	sp,sp,-48
  58              		.cfi_def_cfa_offset 48
  59 002c 23341102 		sd	ra,40(sp)
  60 0030 23308102 		sd	s0,32(sp)
  61 0034 233C9100 		sd	s1,24(sp)
  62              		.cfi_offset 1, -8
  63              		.cfi_offset 8, -16
  64              		.cfi_offset 9, -24
  65 0038 13040103 		addi	s0,sp,48
GAS LISTING /tmp/ccI4CSnj.s 			page 3


  66              		.cfi_def_cfa 8, 0
  44:src/main.cpp  ****     // postavljena adresa prekidne rutine u stvec
  45:src/main.cpp  ****     __asm__ volatile ("csrw stvec, %[vector]" : : [vector] "r" (&Riscv::supervisorTrap) );
  67              		.loc 1 45 5
  68              		.loc 1 45 90 is_stmt 0
  69 003c 97070000 		la	a5,_ZN5Riscv14supervisorTrapEv
  69      83B70700 
  70              	#APP
  71              	# 45 "src/main.cpp" 1
  46              	
  47:src/main.cpp  **** /*
  48:src/main.cpp  ****     thread_t threads[5];
  49:src/main.cpp  ****     thread_create(&threads[0], workerBodyA, nullptr);
  50:src/main.cpp  ****     TCB::running = threads[0];
  51:src/main.cpp  **** 
  52:src/main.cpp  ****     // postavljen bit 1 (SIE) na 1 => omuguceni prekidi
  53:src/main.cpp  ****     __asm__ volatile ("csrs sstatus, 0x02");
  54:src/main.cpp  **** 
  55:src/main.cpp  ****     thread_create(&threads[1], workerBodyA, nullptr);
  56:src/main.cpp  **** 
  57:src/main.cpp  ****     thread_create(&threads[2], workerBodyB, nullptr);
  58:src/main.cpp  ****     printString("ThreadB created\n");
  59:src/main.cpp  **** 
  60:src/main.cpp  ****     thread_create(&threads[3], workerBodyC, nullptr);
  61:src/main.cpp  ****     printString("ThreadC created\n");
  62:src/main.cpp  **** 
  63:src/main.cpp  ****     thread_create(&threads[4], workerBodyD, nullptr);
  64:src/main.cpp  ****     printString("ThreadD created\n");
  65:src/main.cpp  **** 
  66:src/main.cpp  **** 
  67:src/main.cpp  ****     while (!(threads[1]->isFinished() && threads[2]->isFinished() &&
  68:src/main.cpp  ****              threads[3]->isFinished() && threads[4]->isFinished())) {
  69:src/main.cpp  ****        // TCB::yield();
  70:src/main.cpp  ****        thread_dispatch();
  71:src/main.cpp  ****     }
  72:src/main.cpp  ****     for (auto &thread: threads) { delete thread; }
  73:src/main.cpp  ****     printString("Finished\n");
  74:src/main.cpp  **** */
  75:src/main.cpp  **** 
  76:src/main.cpp  **** 
  77:src/main.cpp  **** //    printInt((uint64)Riscv::r_sstatus());
  78:src/main.cpp  **** //    printString("Sstatus = ");
  79:src/main.cpp  **** 
  80:src/main.cpp  ****     // Obavezno postaviti prvo fju main kao pocetnu nit
  81:src/main.cpp  ****     thread_t mainThread;
  72              		csrw stvec, a5
  73              	# 0 "" 2
  74              		.loc 1 81 5 is_stmt 1
  82:src/main.cpp  ****     thread_create(&mainThread, nullptr, nullptr);
  75              		.loc 1 82 5
  76              		.loc 1 82 18 is_stmt 0
  77              	#NO_APP
  78 0048 13060000 		li	a2,0
  79 004c 93050000 		li	a1,0
  80 0050 130584FD 		addi	a0,s0,-40
  81 0054 97000000 		call	_Z13thread_createPP3TCBPFvPvES2_@plt
  81      E7800000 
GAS LISTING /tmp/ccI4CSnj.s 			page 4


  82              	.LVL2:
  83:src/main.cpp  ****     TCB::running = mainThread;
  83              		.loc 1 83 5 is_stmt 1
  84              		.loc 1 83 18 is_stmt 0
  85 005c 97070000 		la	a5,_ZN3TCB7runningE
  85      83B70700 
  86 0064 033784FD 		ld	a4,-40(s0)
  87 0068 23B0E700 		sd	a4,0(a5)
  84:src/main.cpp  **** 
  85:src/main.cpp  **** 
  86:src/main.cpp  ****     volatile thread_t userThread;
  88              		.loc 1 86 5 is_stmt 1
  87:src/main.cpp  ****     printString("\nuserThread: ");
  89              		.loc 1 87 5
  90              		.loc 1 87 16 is_stmt 0
  91 006c 17050000 		lla	a0,.LC0
  91      13050500 
  92 0074 97000000 		call	_Z11printStringPKc@plt
  92      E7800000 
  93              	.LVL3:
  88:src/main.cpp  ****     printInt((uint64)&userThread, 16, 0);
  94              		.loc 1 88 5 is_stmt 1
  95              		.loc 1 88 13 is_stmt 0
  96 007c 13060000 		li	a2,0
  97 0080 93050001 		li	a1,16
  98 0084 930404FD 		addi	s1,s0,-48
  99 0088 1B850400 		sext.w	a0,s1
 100 008c 97000000 		call	_Z8printIntiii@plt
 100      E7800000 
 101              	.LVL4:
  89:src/main.cpp  ****     if(thread_create((thread_t*)&userThread, userWrapperThread, nullptr) < 0) {
 102              		.loc 1 89 5 is_stmt 1
 103              		.loc 1 89 21 is_stmt 0
 104 0094 13060000 		li	a2,0
 105 0098 97050000 		lla	a1,_Z17userWrapperThreadPv
 105      93850500 
 106 00a0 13850400 		mv	a0,s1
 107 00a4 97000000 		call	_Z13thread_createPP3TCBPFvPvES2_@plt
 107      E7800000 
 108              	.LVL5:
 109              		.loc 1 89 5
 110 00ac 634E0500 		bltz	a0,.L8
 111              	.L6:
  90:src/main.cpp  ****         printString("Greska");
  91:src/main.cpp  ****     }
  92:src/main.cpp  **** 
  93:src/main.cpp  **** 
  94:src/main.cpp  ****     while(!userThread->isFinished()) {
 112              		.loc 1 94 5 is_stmt 1
 113              		.loc 1 94 11
 114              		.loc 1 94 34 is_stmt 0
 115 00b0 833704FD 		ld	a5,-48(s0)
 116              	.LVL6:
 117              	.LBB4:
 118              	.LBB5:
 119              		.file 2 "src/../h/../h/tcb.hpp"
   1:src/../h/../h/tcb.hpp **** //
GAS LISTING /tmp/ccI4CSnj.s 			page 5


   2:src/../h/../h/tcb.hpp **** // Created by os on 8/17/22.
   3:src/../h/../h/tcb.hpp **** //
   4:src/../h/../h/tcb.hpp **** 
   5:src/../h/../h/tcb.hpp **** #ifndef PROBA3_PROJECT_BASE_TCB_HPP
   6:src/../h/../h/tcb.hpp **** #define PROBA3_PROJECT_BASE_TCB_HPP
   7:src/../h/../h/tcb.hpp **** 
   8:src/../h/../h/tcb.hpp **** #include "../lib/hw.h"
   9:src/../h/../h/tcb.hpp **** #include "../h/scheduler.hpp"
  10:src/../h/../h/tcb.hpp **** #include "../h/memoryAllocator.hpp"
  11:src/../h/../h/tcb.hpp **** #include "../lib/mem.h"
  12:src/../h/../h/tcb.hpp **** 
  13:src/../h/../h/tcb.hpp **** 
  14:src/../h/../h/tcb.hpp **** 
  15:src/../h/../h/tcb.hpp **** #define THREADS_NUM 64
  16:src/../h/../h/tcb.hpp **** 
  17:src/../h/../h/tcb.hpp **** //  IZLASKOM IZ F-JA WOKRERA NITI SE IMPLICINTNO ZAVRSAVAJU
  18:src/../h/../h/tcb.hpp **** 
  19:src/../h/../h/tcb.hpp **** extern void printString(char const *string);
  20:src/../h/../h/tcb.hpp **** 
  21:src/../h/../h/tcb.hpp **** 
  22:src/../h/../h/tcb.hpp **** void *operator new(uint64 n);
  23:src/../h/../h/tcb.hpp **** void *operator new[](uint64 n);
  24:src/../h/../h/tcb.hpp **** 
  25:src/../h/../h/tcb.hpp **** typedef TCB* thread_t;
  26:src/../h/../h/tcb.hpp **** 
  27:src/../h/../h/tcb.hpp **** class TCB {
  28:src/../h/../h/tcb.hpp **** public:
  29:src/../h/../h/tcb.hpp **** 
  30:src/../h/../h/tcb.hpp ****     static void dispatch();
  31:src/../h/../h/tcb.hpp **** 
  32:src/../h/../h/tcb.hpp ****     ~TCB() { delete[] stack;
  33:src/../h/../h/tcb.hpp ****         printString("\nDestructor is executed\n");
  34:src/../h/../h/tcb.hpp ****     }
  35:src/../h/../h/tcb.hpp **** 
  36:src/../h/../h/tcb.hpp ****     bool isFinished() const { return finished; }
 120              		.loc 2 36 31 is_stmt 1
 121              		.loc 2 36 38 is_stmt 0
 122 00b4 83C70703 		lbu	a5,48(a5)
 123              	.LVL7:
 124              	.LBE5:
 125              	.LBE4:
 126              		.loc 1 94 11
 127 00b8 63920702 		bnez	a5,.L5
  95:src/main.cpp  ****         thread_dispatch();
 128              		.loc 1 95 9 is_stmt 1
 129              		.loc 1 95 24 is_stmt 0
 130 00bc 97000000 		call	_Z15thread_dispatchv@plt
 130      E7800000 
 131              	.LVL8:
 132 00c4 6FF0DFFE 		j	.L6
 133              	.L8:
  90:src/main.cpp  ****         printString("Greska");
 134              		.loc 1 90 9 is_stmt 1
  90:src/main.cpp  ****         printString("Greska");
 135              		.loc 1 90 20 is_stmt 0
 136 00c8 17050000 		lla	a0,.LC1
 136      13050500 
GAS LISTING /tmp/ccI4CSnj.s 			page 6


 137 00d0 97000000 		call	_Z11printStringPKc@plt
 137      E7800000 
 138              	.LVL9:
 139 00d8 6FF09FFD 		j	.L6
 140              	.L5:
  96:src/main.cpp  ****     }
  97:src/main.cpp  **** 
  98:src/main.cpp  **** 
  99:src/main.cpp  **** /*
 100:src/main.cpp  ****     // postavljen bit 1 (SIE) na 1 => omuguceni prekidi
 101:src/main.cpp  ****     __asm__ volatile ("csrs sstatus, 0x02");
 102:src/main.cpp  **** 
 103:src/main.cpp  ****     testThreadsC();
 104:src/main.cpp  ****     */
 105:src/main.cpp  **** 
 106:src/main.cpp  ****    // testThreadsCPP();
 107:src/main.cpp  ****     // testThreadsC();
 108:src/main.cpp  ****     printString("\n Vratio se u main"); // Treba da se vrati u main! Na console treba da pise "Kern
 141              		.loc 1 108 5 is_stmt 1
 142              		.loc 1 108 16 is_stmt 0
 143 00dc 17050000 		lla	a0,.LC2
 143      13050500 
 144 00e4 97000000 		call	_Z11printStringPKc@plt
 144      E7800000 
 145              	.LVL10:
 109:src/main.cpp  **** 
 110:src/main.cpp  ****     //Threads_CPP_API_test();
 111:src/main.cpp  **** /*
 112:src/main.cpp  **** 
 113:src/main.cpp  **** 
 114:src/main.cpp  ****     if(sem_open(&sem1, 1)) {}
 115:src/main.cpp  **** 
 116:src/main.cpp  ****     Thread* t1 = new Thread(p1, nullptr);
 117:src/main.cpp  ****     Thread* t2 = new Thread(p2, nullptr);
 118:src/main.cpp  **** 
 119:src/main.cpp  ****     t1->start(); t2->start();
 120:src/main.cpp  **** 
 121:src/main.cpp  ****     //sem_wait(sem1);https://code-with-me.global.jetbrains.com/nSOVLjqA8sGVbd17C0J6LQ#p=CL&fp=25A6A
 122:src/main.cpp  **** 
 123:src/main.cpp  ****     while(1){
 124:src/main.cpp  ****         thread_dispatch();
 125:src/main.cpp  ****     }*/
 126:src/main.cpp  **** 
 127:src/main.cpp  **** 
 128:src/main.cpp  **** 
 129:src/main.cpp  **** }
 146              		.loc 1 129 1
 147 00ec 83308102 		ld	ra,40(sp)
 148              		.cfi_restore 1
 149 00f0 03340102 		ld	s0,32(sp)
 150              		.cfi_restore 8
 151              		.cfi_def_cfa 2, 48
 152 00f4 83348101 		ld	s1,24(sp)
 153              		.cfi_restore 9
 154 00f8 13010103 		addi	sp,sp,48
 155              		.cfi_def_cfa_offset 0
 156 00fc 67800000 		jr	ra
GAS LISTING /tmp/ccI4CSnj.s 			page 7


 157              		.cfi_endproc
 158              	.LFE45:
 160              	.Letext0:
 161              		.file 3 "src/../h/../lib/hw.h"
 162              		.file 4 "src/../h/syscall_c.h"
 163              		.file 5 "src/printing.hpp"
GAS LISTING /tmp/ccI4CSnj.s 			page 8

