GAS LISTING /tmp/ccq76hmC.s 			page 1


   1              		.file	"memoryAllocator.cpp"
   2              		.option pic
   3              		.option norelax
   4              		.text
   5              	.Ltext0:
   6              		.align	2
   7              		.globl	_ZN15MemoryAllocator5splitEPNS_8metaDataEm
   9              	_ZN15MemoryAllocator5splitEPNS_8metaDataEm:
  10              	.LFB27:
  11              		.file 1 "src/memoryAllocator.cpp"
   1:src/memoryAllocator.cpp **** //
   2:src/memoryAllocator.cpp **** // Created by os on 8/14/22.
   3:src/memoryAllocator.cpp **** //
   4:src/memoryAllocator.cpp **** 
   5:src/memoryAllocator.cpp **** #include "../h/memoryAllocator.hpp"
   6:src/memoryAllocator.cpp **** #include "../lib/hw.h"
   7:src/memoryAllocator.cpp **** #include "printing.hpp"
   8:src/memoryAllocator.cpp **** 
   9:src/memoryAllocator.cpp **** void* MemoryAllocator::myMalloc(size_t noOfBlocks){
  10:src/memoryAllocator.cpp ****     struct metaData *curr, *prev;
  11:src/memoryAllocator.cpp ****     void *result;
  12:src/memoryAllocator.cpp **** 
  13:src/memoryAllocator.cpp ****     int noOfBytes = countSizeBytes(noOfBlocks);
  14:src/memoryAllocator.cpp **** 
  15:src/memoryAllocator.cpp ****     curr = freeList;
  16:src/memoryAllocator.cpp ****     while( ( ( (curr->size) < noOfBytes) || ( (curr->free) == 0) ) && (curr->next != 0) ){
  17:src/memoryAllocator.cpp ****         prev=curr;
  18:src/memoryAllocator.cpp ****         curr=curr->next;
  19:src/memoryAllocator.cpp ****        // printString("One block checked\n");
  20:src/memoryAllocator.cpp ****     }
  21:src/memoryAllocator.cpp ****     if((curr->size)==noOfBytes && curr->free){
  22:src/memoryAllocator.cpp ****         curr->free=0;
  23:src/memoryAllocator.cpp ****         result=(void*)(++curr);
  24:src/memoryAllocator.cpp ****        // printString("Exact fitting block allocated\n");
  25:src/memoryAllocator.cpp ****         return result;
  26:src/memoryAllocator.cpp ****     }
  27:src/memoryAllocator.cpp ****     else if((curr->size)>(noOfBytes+sizeof(struct metaData)) && curr->free){
  28:src/memoryAllocator.cpp ****         split(curr,noOfBytes);
  29:src/memoryAllocator.cpp ****         result=(void*)(++curr);
  30:src/memoryAllocator.cpp ****       //  printString("Fitting block allocated with a split\n");
  31:src/memoryAllocator.cpp ****         return result;
  32:src/memoryAllocator.cpp ****     }
  33:src/memoryAllocator.cpp ****     else{
  34:src/memoryAllocator.cpp ****         result=0;
  35:src/memoryAllocator.cpp ****       //  printString("Sorry. No sufficient memory to allocate\n");
  36:src/memoryAllocator.cpp ****         return result;
  37:src/memoryAllocator.cpp ****     }
  38:src/memoryAllocator.cpp **** 
  39:src/memoryAllocator.cpp **** }
  40:src/memoryAllocator.cpp **** 
  41:src/memoryAllocator.cpp **** void MemoryAllocator::split(struct metaData *fitting_slot,size_t size){
  12              		.loc 1 41 71
  13              		.cfi_startproc
  14              	.LVL0:
  15 0000 130101FF 		addi	sp,sp,-16
  16              		.cfi_def_cfa_offset 16
  17 0004 23348100 		sd	s0,8(sp)
GAS LISTING /tmp/ccq76hmC.s 			page 2


  18              		.cfi_offset 8, -8
  19 0008 13040101 		addi	s0,sp,16
  20              		.cfi_def_cfa 8, 0
  42:src/memoryAllocator.cpp **** 
  43:src/memoryAllocator.cpp ****     struct metaData *newBlock = (struct metaData*)((char *)fitting_slot + size + sizeof(struct meta
  21              		.loc 1 43 5
  22              		.loc 1 43 80 is_stmt 0
  23 000c 93078601 		addi	a5,a2,24
  24              		.loc 1 43 22
  25 0010 B387F500 		add	a5,a1,a5
  26              	.LVL1:
  44:src/memoryAllocator.cpp ****     newBlock->size = (fitting_slot->size)-size-sizeof(struct metaData);
  27              		.loc 1 44 5 is_stmt 1
  28              		.loc 1 44 37 is_stmt 0
  29 0014 03B70500 		ld	a4,0(a1)
  30              		.loc 1 44 42
  31 0018 3307C740 		sub	a4,a4,a2
  32              		.loc 1 44 47
  33 001c 130787FE 		addi	a4,a4,-24
  34              		.loc 1 44 20
  35 0020 23B0E700 		sd	a4,0(a5)
  45:src/memoryAllocator.cpp ****     newBlock->free = 1;
  36              		.loc 1 45 5 is_stmt 1
  37              		.loc 1 45 20 is_stmt 0
  38 0024 13071000 		li	a4,1
  39 0028 23A4E700 		sw	a4,8(a5)
  46:src/memoryAllocator.cpp ****     newBlock->next=fitting_slot->next;
  40              		.loc 1 46 5 is_stmt 1
  41              		.loc 1 46 34 is_stmt 0
  42 002c 03B70501 		ld	a4,16(a1)
  43              		.loc 1 46 19
  44 0030 23B8E700 		sd	a4,16(a5)
  47:src/memoryAllocator.cpp ****     fitting_slot->size = size;
  45              		.loc 1 47 5 is_stmt 1
  46              		.loc 1 47 24 is_stmt 0
  47 0034 23B0C500 		sd	a2,0(a1)
  48:src/memoryAllocator.cpp ****     fitting_slot->free = 0;
  48              		.loc 1 48 5 is_stmt 1
  49              		.loc 1 48 24 is_stmt 0
  50 0038 23A40500 		sw	zero,8(a1)
  49:src/memoryAllocator.cpp ****     fitting_slot->next = newBlock;
  51              		.loc 1 49 5 is_stmt 1
  52              		.loc 1 49 24 is_stmt 0
  53 003c 23B8F500 		sd	a5,16(a1)
  50:src/memoryAllocator.cpp **** }
  54              		.loc 1 50 1
  55 0040 03348100 		ld	s0,8(sp)
  56              		.cfi_restore 8
  57              		.cfi_def_cfa 2, 16
  58 0044 13010101 		addi	sp,sp,16
  59              		.cfi_def_cfa_offset 0
  60 0048 67800000 		jr	ra
  61              		.cfi_endproc
  62              	.LFE27:
  64              		.align	2
  65              		.globl	_ZN15MemoryAllocator8myMallocEm
  67              	_ZN15MemoryAllocator8myMallocEm:
GAS LISTING /tmp/ccq76hmC.s 			page 3


  68              	.LFB26:
   9:src/memoryAllocator.cpp ****     struct metaData *curr, *prev;
  69              		.loc 1 9 51 is_stmt 1
  70              		.cfi_startproc
  71              	.LVL2:
  72 004c 130101FE 		addi	sp,sp,-32
  73              		.cfi_def_cfa_offset 32
  74 0050 233C1100 		sd	ra,24(sp)
  75 0054 23388100 		sd	s0,16(sp)
  76 0058 23349100 		sd	s1,8(sp)
  77              		.cfi_offset 1, -8
  78              		.cfi_offset 8, -16
  79              		.cfi_offset 9, -24
  80 005c 13040102 		addi	s0,sp,32
  81              		.cfi_def_cfa 8, 0
  10:src/memoryAllocator.cpp ****     void *result;
  82              		.loc 1 10 5
  11:src/memoryAllocator.cpp **** 
  83              		.loc 1 11 5
  13:src/memoryAllocator.cpp **** 
  84              		.loc 1 13 5
  85              	.LVL3:
  86              	.LBB4:
  87              	.LBB5:
  88              		.file 2 "src/../h/memoryAllocator.hpp"
   1:src/../h/memoryAllocator.hpp **** //
   2:src/../h/memoryAllocator.hpp **** // Created by os on 8/14/22.
   3:src/../h/memoryAllocator.hpp **** //
   4:src/../h/memoryAllocator.hpp **** 
   5:src/../h/memoryAllocator.hpp **** #ifndef PROBA3_PROJECT_BASE_MEMORYALLOCATOR_HPP
   6:src/../h/memoryAllocator.hpp **** #define PROBA3_PROJECT_BASE_MEMORYALLOCATOR_HPP
   7:src/../h/memoryAllocator.hpp **** 
   8:src/../h/memoryAllocator.hpp **** #include "../lib/hw.h"
   9:src/../h/memoryAllocator.hpp **** 
  10:src/../h/memoryAllocator.hpp **** class MemoryAllocator {
  11:src/../h/memoryAllocator.hpp **** private:
  12:src/../h/memoryAllocator.hpp **** 
  13:src/../h/memoryAllocator.hpp ****     int countSizeBytes(int blockNum){
  14:src/../h/memoryAllocator.hpp ****         return blockNum * MEM_BLOCK_SIZE;
  89              		.loc 2 14 9
  90              		.loc 2 14 27 is_stmt 0
  91 0060 9B956500 		slliw	a1,a1,6
  92              	.LVL4:
  93              	.LBE5:
  94              	.LBE4:
  15:src/memoryAllocator.cpp ****     while( ( ( (curr->size) < noOfBytes) || ( (curr->free) == 0) ) && (curr->next != 0) ){
  95              		.loc 1 15 5 is_stmt 1
  15:src/memoryAllocator.cpp ****     while( ( ( (curr->size) < noOfBytes) || ( (curr->free) == 0) ) && (curr->next != 0) ){
  96              		.loc 1 15 10 is_stmt 0
  97 0064 83340500 		ld	s1,0(a0)
  98              	.LVL5:
  99 0068 6F000001 		j	.L6
 100              	.L4:
  16:src/memoryAllocator.cpp ****         prev=curr;
 101              		.loc 1 16 78 discriminator 3
 102 006c 83B70401 		ld	a5,16(s1)
  16:src/memoryAllocator.cpp ****         prev=curr;
GAS LISTING /tmp/ccq76hmC.s 			page 4


 103              		.loc 1 16 68 discriminator 3
 104 0070 638E0700 		beqz	a5,.L5
  18:src/memoryAllocator.cpp ****        // printString("One block checked\n");
 105              		.loc 1 18 13
 106 0074 93840700 		mv	s1,a5
 107              	.LVL6:
 108              	.L6:
  16:src/memoryAllocator.cpp ****         prev=curr;
 109              		.loc 1 16 5 is_stmt 1
  16:src/memoryAllocator.cpp ****         prev=curr;
 110              		.loc 1 16 68
  16:src/memoryAllocator.cpp ****         prev=curr;
 111              		.loc 1 16 23 is_stmt 0
 112 0078 03B70400 		ld	a4,0(s1)
  16:src/memoryAllocator.cpp ****         prev=curr;
 113              		.loc 1 16 31
 114 007c 13860500 		mv	a2,a1
  16:src/memoryAllocator.cpp ****         prev=curr;
 115              		.loc 1 16 68
 116 0080 E366B7FE 		bltu	a4,a1,.L4
  16:src/memoryAllocator.cpp ****         prev=curr;
 117              		.loc 1 16 54 discriminator 1
 118 0084 83A78400 		lw	a5,8(s1)
  16:src/memoryAllocator.cpp ****         prev=curr;
 119              		.loc 1 16 42 discriminator 1
 120 0088 E38207FE 		beqz	a5,.L4
 121              	.L5:
  21:src/memoryAllocator.cpp ****         curr->free=0;
 122              		.loc 1 21 5 is_stmt 1
 123 008c 630CC702 		beq	a4,a2,.L13
 124              	.L7:
  27:src/memoryAllocator.cpp ****         split(curr,noOfBytes);
 125              		.loc 1 27 10
  27:src/memoryAllocator.cpp ****         split(curr,noOfBytes);
 126              		.loc 1 27 36 is_stmt 0
 127 0090 93078601 		addi	a5,a2,24
  27:src/memoryAllocator.cpp ****         split(curr,noOfBytes);
 128              		.loc 1 27 10
 129 0094 63F2E704 		bleu	a4,a5,.L10
  27:src/memoryAllocator.cpp ****         split(curr,noOfBytes);
 130              		.loc 1 27 71 discriminator 1
 131 0098 83A78400 		lw	a5,8(s1)
  27:src/memoryAllocator.cpp ****         split(curr,noOfBytes);
 132              		.loc 1 27 62 discriminator 1
 133 009c 63820704 		beqz	a5,.L11
  28:src/memoryAllocator.cpp ****         result=(void*)(++curr);
 134              		.loc 1 28 9 is_stmt 1
  28:src/memoryAllocator.cpp ****         result=(void*)(++curr);
 135              		.loc 1 28 14 is_stmt 0
 136 00a0 93850400 		mv	a1,s1
 137 00a4 97000000 		call	_ZN15MemoryAllocator5splitEPNS_8metaDataEm
 137      E7800000 
 138              	.LVL7:
  29:src/memoryAllocator.cpp ****       //  printString("Fitting block allocated with a split\n");
 139              		.loc 1 29 9 is_stmt 1
  29:src/memoryAllocator.cpp ****       //  printString("Fitting block allocated with a split\n");
 140              		.loc 1 29 15 is_stmt 0
GAS LISTING /tmp/ccq76hmC.s 			page 5


 141 00ac 13858401 		addi	a0,s1,24
 142              	.LVL8:
  31:src/memoryAllocator.cpp ****     }
 143              		.loc 1 31 9 is_stmt 1
 144              	.L3:
  39:src/memoryAllocator.cpp **** 
 145              		.loc 1 39 1 is_stmt 0
 146 00b0 83308101 		ld	ra,24(sp)
 147              		.cfi_remember_state
 148              		.cfi_restore 1
 149 00b4 03340101 		ld	s0,16(sp)
 150              		.cfi_restore 8
 151              		.cfi_def_cfa 2, 32
 152 00b8 83348100 		ld	s1,8(sp)
 153              		.cfi_restore 9
 154 00bc 13010102 		addi	sp,sp,32
 155              		.cfi_def_cfa_offset 0
 156 00c0 67800000 		jr	ra
 157              	.LVL9:
 158              	.L13:
 159              		.cfi_restore_state
  21:src/memoryAllocator.cpp ****         curr->free=0;
 160              		.loc 1 21 41 discriminator 1
 161 00c4 83A78400 		lw	a5,8(s1)
  21:src/memoryAllocator.cpp ****         curr->free=0;
 162              		.loc 1 21 32 discriminator 1
 163 00c8 E38407FC 		beqz	a5,.L7
  22:src/memoryAllocator.cpp ****         result=(void*)(++curr);
 164              		.loc 1 22 9 is_stmt 1
  22:src/memoryAllocator.cpp ****         result=(void*)(++curr);
 165              		.loc 1 22 19 is_stmt 0
 166 00cc 23A40400 		sw	zero,8(s1)
  23:src/memoryAllocator.cpp ****        // printString("Exact fitting block allocated\n");
 167              		.loc 1 23 9 is_stmt 1
  23:src/memoryAllocator.cpp ****        // printString("Exact fitting block allocated\n");
 168              		.loc 1 23 15 is_stmt 0
 169 00d0 13858401 		addi	a0,s1,24
 170              	.LVL10:
  25:src/memoryAllocator.cpp ****     }
 171              		.loc 1 25 9 is_stmt 1
  25:src/memoryAllocator.cpp ****     }
 172              		.loc 1 25 16 is_stmt 0
 173 00d4 6FF0DFFD 		j	.L3
 174              	.LVL11:
 175              	.L10:
  36:src/memoryAllocator.cpp ****     }
 176              		.loc 1 36 16
 177 00d8 13050000 		li	a0,0
 178              	.LVL12:
 179 00dc 6FF05FFD 		j	.L3
 180              	.LVL13:
 181              	.L11:
 182 00e0 13050000 		li	a0,0
 183              	.LVL14:
 184 00e4 6FF0DFFC 		j	.L3
 185              		.cfi_endproc
 186              	.LFE26:
GAS LISTING /tmp/ccq76hmC.s 			page 6


 188              		.align	2
 189              		.globl	_ZN15MemoryAllocator5mergeEv
 191              	_ZN15MemoryAllocator5mergeEv:
 192              	.LFB29:
  51:src/memoryAllocator.cpp **** 
  52:src/memoryAllocator.cpp **** int MemoryAllocator::myFree(void *ptr) {
  53:src/memoryAllocator.cpp ****    // printString("\nUsao u myFree\n");
  54:src/memoryAllocator.cpp ****     if((char*)ptr >= (char*)HEAP_START_ADDR && ptr < (char*)HEAP_END_ADDR){
  55:src/memoryAllocator.cpp ****         struct metaData* curr = (struct metaData*)ptr;
  56:src/memoryAllocator.cpp ****         --curr;
  57:src/memoryAllocator.cpp ****         curr->free = 1;
  58:src/memoryAllocator.cpp ****         merge();
  59:src/memoryAllocator.cpp ****         return 0;
  60:src/memoryAllocator.cpp ****     } else {
  61:src/memoryAllocator.cpp ****        // printString("\nAdresa nije u validnom opsegu");
  62:src/memoryAllocator.cpp ****         return -1;
  63:src/memoryAllocator.cpp ****     }
  64:src/memoryAllocator.cpp **** }
  65:src/memoryAllocator.cpp **** 
  66:src/memoryAllocator.cpp **** void MemoryAllocator::merge() {
 193              		.loc 1 66 31 is_stmt 1
 194              		.cfi_startproc
 195              	.LVL15:
 196 00e8 130101FF 		addi	sp,sp,-16
 197              		.cfi_def_cfa_offset 16
 198 00ec 23348100 		sd	s0,8(sp)
 199              		.cfi_offset 8, -8
 200 00f0 13040101 		addi	s0,sp,16
 201              		.cfi_def_cfa 8, 0
  67:src/memoryAllocator.cpp ****     struct metaData* temp = freeList;
 202              		.loc 1 67 5
 203              		.loc 1 67 22 is_stmt 0
 204 00f4 83370500 		ld	a5,0(a0)
 205              	.LVL16:
 206 00f8 6F008000 		j	.L17
 207              	.L16:
  68:src/memoryAllocator.cpp ****     while(temp && temp->next) {
  69:src/memoryAllocator.cpp ****         if(temp->free && temp->next->free){
  70:src/memoryAllocator.cpp ****             temp->size = temp->size + sizeof(struct metaData) + temp->next->size;
  71:src/memoryAllocator.cpp ****             temp->next = temp->next->next; // prevezani
  72:src/memoryAllocator.cpp ****         }
  73:src/memoryAllocator.cpp ****         temp = temp->next;
 208              		.loc 1 73 9 is_stmt 1
 209              		.loc 1 73 14 is_stmt 0
 210 00fc 83B70701 		ld	a5,16(a5)
 211              	.LVL17:
 212              	.L17:
  68:src/memoryAllocator.cpp ****     while(temp && temp->next) {
 213              		.loc 1 68 5 is_stmt 1
  68:src/memoryAllocator.cpp ****     while(temp && temp->next) {
 214              		.loc 1 68 16
 215 0100 638E0702 		beqz	a5,.L14
  68:src/memoryAllocator.cpp ****     while(temp && temp->next) {
 216              		.loc 1 68 25 is_stmt 0 discriminator 1
 217 0104 03B70701 		ld	a4,16(a5)
  68:src/memoryAllocator.cpp ****     while(temp && temp->next) {
 218              		.loc 1 68 16 discriminator 1
GAS LISTING /tmp/ccq76hmC.s 			page 7


 219 0108 630A0702 		beqz	a4,.L14
  69:src/memoryAllocator.cpp ****             temp->size = temp->size + sizeof(struct metaData) + temp->next->size;
 220              		.loc 1 69 9 is_stmt 1
  69:src/memoryAllocator.cpp ****             temp->size = temp->size + sizeof(struct metaData) + temp->next->size;
 221              		.loc 1 69 18 is_stmt 0
 222 010c 83A68700 		lw	a3,8(a5)
  69:src/memoryAllocator.cpp ****             temp->size = temp->size + sizeof(struct metaData) + temp->next->size;
 223              		.loc 1 69 9
 224 0110 E38606FE 		beqz	a3,.L16
  69:src/memoryAllocator.cpp ****             temp->size = temp->size + sizeof(struct metaData) + temp->next->size;
 225              		.loc 1 69 38 discriminator 1
 226 0114 83268700 		lw	a3,8(a4)
  69:src/memoryAllocator.cpp ****             temp->size = temp->size + sizeof(struct metaData) + temp->next->size;
 227              		.loc 1 69 23 discriminator 1
 228 0118 E38206FE 		beqz	a3,.L16
  70:src/memoryAllocator.cpp ****             temp->next = temp->next->next; // prevezani
 229              		.loc 1 70 13 is_stmt 1
  70:src/memoryAllocator.cpp ****             temp->next = temp->next->next; // prevezani
 230              		.loc 1 70 32 is_stmt 0
 231 011c 83B60700 		ld	a3,0(a5)
  70:src/memoryAllocator.cpp ****             temp->next = temp->next->next; // prevezani
 232              		.loc 1 70 77
 233 0120 03360700 		ld	a2,0(a4)
  70:src/memoryAllocator.cpp ****             temp->next = temp->next->next; // prevezani
 234              		.loc 1 70 63
 235 0124 B386C600 		add	a3,a3,a2
 236 0128 93868601 		addi	a3,a3,24
  70:src/memoryAllocator.cpp ****             temp->next = temp->next->next; // prevezani
 237              		.loc 1 70 24
 238 012c 23B0D700 		sd	a3,0(a5)
  71:src/memoryAllocator.cpp ****         }
 239              		.loc 1 71 13 is_stmt 1
  71:src/memoryAllocator.cpp ****         }
 240              		.loc 1 71 38 is_stmt 0
 241 0130 03370701 		ld	a4,16(a4)
  71:src/memoryAllocator.cpp ****         }
 242              		.loc 1 71 24
 243 0134 23B8E700 		sd	a4,16(a5)
 244 0138 6FF05FFC 		j	.L16
 245              	.L14:
  74:src/memoryAllocator.cpp ****     }
  75:src/memoryAllocator.cpp **** }...
 246              		.loc 1 75 1
 247 013c 03348100 		ld	s0,8(sp)
 248              		.cfi_restore 8
 249              		.cfi_def_cfa 2, 16
 250 0140 13010101 		addi	sp,sp,16
 251              		.cfi_def_cfa_offset 0
 252 0144 67800000 		jr	ra
 253              		.cfi_endproc
 254              	.LFE29:
 256              		.align	2
 257              		.globl	_ZN15MemoryAllocator6myFreeEPv
 259              	_ZN15MemoryAllocator6myFreeEPv:
 260              	.LFB28:
  52:src/memoryAllocator.cpp **** int MemoryAllocator::myFree(void *ptr) {
 261              		.loc 1 52 40 is_stmt 1
GAS LISTING /tmp/ccq76hmC.s 			page 8


 262              		.cfi_startproc
 263              	.LVL18:
  54:src/memoryAllocator.cpp ****     if((char*)ptr >= (char*)HEAP_START_ADDR && ptr < (char*)HEAP_END_ADDR){
 264              		.loc 1 54 5
 265              	.LBB6:
  54:src/memoryAllocator.cpp ****     if((char*)ptr >= (char*)HEAP_START_ADDR && ptr < (char*)HEAP_END_ADDR){
 266              		.loc 1 54 22 is_stmt 0
 267 0148 97070000 		la	a5,HEAP_START_ADDR
 267      83B70700 
 268 0150 83B70700 		ld	a5,0(a5)
  54:src/memoryAllocator.cpp ****     if((char*)ptr >= (char*)HEAP_START_ADDR && ptr < (char*)HEAP_END_ADDR){
 269              		.loc 1 54 5
 270 0154 63E4F504 		bgtu	a5,a1,.L21
  54:src/memoryAllocator.cpp ****     if((char*)ptr >= (char*)HEAP_START_ADDR && ptr < (char*)HEAP_END_ADDR){
 271              		.loc 1 54 54 discriminator 1
 272 0158 97070000 		la	a5,HEAP_END_ADDR
 272      83B70700 
 273 0160 83B70700 		ld	a5,0(a5)
  54:src/memoryAllocator.cpp ****     if((char*)ptr >= (char*)HEAP_START_ADDR && ptr < (char*)HEAP_END_ADDR){
 274              		.loc 1 54 45 discriminator 1
 275 0164 63F0F504 		bleu	a5,a1,.L22
 276              	.LBE6:
  52:src/memoryAllocator.cpp **** int MemoryAllocator::myFree(void *ptr) {
 277              		.loc 1 52 40
 278 0168 130101FF 		addi	sp,sp,-16
 279              		.cfi_def_cfa_offset 16
 280 016c 23341100 		sd	ra,8(sp)
 281 0170 23308100 		sd	s0,0(sp)
 282              		.cfi_offset 1, -8
 283              		.cfi_offset 8, -16
 284 0174 13040101 		addi	s0,sp,16
 285              		.cfi_def_cfa 8, 0
 286              	.LBB8:
 287              	.LBB7:
  55:src/memoryAllocator.cpp ****         struct metaData* curr = (struct metaData*)ptr;
 288              		.loc 1 55 9 is_stmt 1
 289              	.LVL19:
  56:src/memoryAllocator.cpp ****         --curr;
 290              		.loc 1 56 9
  57:src/memoryAllocator.cpp ****         curr->free = 1;
 291              		.loc 1 57 9
  57:src/memoryAllocator.cpp ****         curr->free = 1;
 292              		.loc 1 57 20 is_stmt 0
 293 0178 93071000 		li	a5,1
 294 017c 23A8F5FE 		sw	a5,-16(a1)
  58:src/memoryAllocator.cpp ****         merge();
 295              		.loc 1 58 9 is_stmt 1
  58:src/memoryAllocator.cpp ****         merge();
 296              		.loc 1 58 14 is_stmt 0
 297 0180 97000000 		call	_ZN15MemoryAllocator5mergeEv
 297      E7800000 
 298              	.LVL20:
  59:src/memoryAllocator.cpp ****         return 0;
 299              		.loc 1 59 9 is_stmt 1
  59:src/memoryAllocator.cpp ****         return 0;
 300              		.loc 1 59 16 is_stmt 0
 301 0188 13050000 		li	a0,0
GAS LISTING /tmp/ccq76hmC.s 			page 9


 302              	.LBE7:
 303              	.LBE8:
  64:src/memoryAllocator.cpp **** }
 304              		.loc 1 64 1
 305 018c 83308100 		ld	ra,8(sp)
 306              		.cfi_restore 1
 307 0190 03340100 		ld	s0,0(sp)
 308              		.cfi_restore 8
 309              		.cfi_def_cfa 2, 16
 310 0194 13010101 		addi	sp,sp,16
 311              		.cfi_def_cfa_offset 0
 312 0198 67800000 		jr	ra
 313              	.LVL21:
 314              	.L21:
 315              	.LBB9:
  62:src/memoryAllocator.cpp ****         return -1;
 316              		.loc 1 62 17
 317 019c 1305F0FF 		li	a0,-1
 318              	.LVL22:
 319 01a0 67800000 		ret
 320              	.LVL23:
 321              	.L22:
 322 01a4 1305F0FF 		li	a0,-1
 323              	.LVL24:
 324              	.LBE9:
  64:src/memoryAllocator.cpp **** }
 325              		.loc 1 64 1
 326 01a8 67800000 		ret
 327              		.cfi_endproc
 328              	.LFE28:
 330              	.Letext0:
 331              		.file 3 "src/../h/../lib/hw.h"
GAS LISTING /tmp/ccq76hmC.s 			page 10

