GAS LISTING /tmp/cceSu3d0.s 			page 1


   1              		.file	"syscall_c.cpp"
   2              		.option pic
   3              		.option norelax
   4              		.text
   5              	.Ltext0:
   6              		.align	2
   7              		.globl	_Z9mem_allocm
   9              	_Z9mem_allocm:
  10              	.LFB26:
  11              		.file 1 "src/syscall_c.cpp"
   1:src/syscall_c.cpp **** //
   2:src/syscall_c.cpp **** // Created by os on 8/11/22.
   3:src/syscall_c.cpp **** //
   4:src/syscall_c.cpp **** #include "../h/syscall_c.h"
   5:src/syscall_c.cpp **** 
   6:src/syscall_c.cpp **** #include "../h/syscallCode.hpp"
   7:src/syscall_c.cpp **** #include "../lib/hw.h"
   8:src/syscall_c.cpp **** #include "../h/memoryAllocator.hpp"
   9:src/syscall_c.cpp **** #include "printing.hpp"
  10:src/syscall_c.cpp **** #include "../h/tcb.hpp"
  11:src/syscall_c.cpp **** #include "../lib/mem.h"
  12:src/syscall_c.cpp **** #include "../h/kSem.hpp"
  13:src/syscall_c.cpp **** 
  14:src/syscall_c.cpp **** 
  15:src/syscall_c.cpp **** void* mem_alloc (size_t size){
  12              		.loc 1 15 30
  13              		.cfi_startproc
  14              	.LVL0:
  15 0000 130101FF 		addi	sp,sp,-16
  16              		.cfi_def_cfa_offset 16
  17 0004 23341100 		sd	ra,8(sp)
  18 0008 23308100 		sd	s0,0(sp)
  19              		.cfi_offset 1, -8
  20              		.cfi_offset 8, -16
  21 000c 13040101 		addi	s0,sp,16
  22              		.cfi_def_cfa 8, 0
  16:src/syscall_c.cpp ****     // size -> block
  17:src/syscall_c.cpp ****     size_t numOfBlock = size / MEM_BLOCK_SIZE + ((size % MEM_BLOCK_SIZE) ? 1 : 0);
  23              		.loc 1 17 5
  24              		.loc 1 17 30 is_stmt 0
  25 0010 93556500 		srli	a1,a0,6
  26              		.loc 1 17 56
  27 0014 1375F503 		andi	a0,a0,63
  28              	.LVL1:
  29              		.loc 1 17 74
  30 0018 63040500 		beqz	a0,.L2
  31 001c 13051000 		li	a0,1
  32              	.L2:
  33              		.loc 1 17 12 discriminator 4
  34 0020 B385A500 		add	a1,a1,a0
  35              	.LVL2:
  18:src/syscall_c.cpp **** //    printString("\nBr blokova u mem_alloc: ");
  19:src/syscall_c.cpp **** //    printInt(numOfBlock);
  20:src/syscall_c.cpp **** //    uint64 code = MEM_ALLOC;
  21:src/syscall_c.cpp **** //    __asm__ volatile ("mv a1, %[numOfBlock]" : : [numOfBlock] "r" (numOfBlock));
  22:src/syscall_c.cpp **** //    __asm__ volatile ("mv a0, %[code]" : : [code] "r" (code));
  23:src/syscall_c.cpp **** //
GAS LISTING /tmp/cceSu3d0.s 			page 2


  24:src/syscall_c.cpp **** //    __asm__ volatile ("ecall");
  25:src/syscall_c.cpp **** 
  26:src/syscall_c.cpp ****     MemoryAllocator* mem = MemoryAllocator::getInstance();
  36              		.loc 1 26 5 is_stmt 1 discriminator 4
  37              	.LBB10:
  38              	.LBB11:
  39              		.file 2 "src/../h/../h/../h/memoryAllocator.hpp"
   1:src/../h/../h/../h/memoryAllocator.hpp **** //
   2:src/../h/../h/../h/memoryAllocator.hpp **** // Created by os on 8/14/22.
   3:src/../h/../h/../h/memoryAllocator.hpp **** //
   4:src/../h/../h/../h/memoryAllocator.hpp **** 
   5:src/../h/../h/../h/memoryAllocator.hpp **** #ifndef PROBA3_PROJECT_BASE_MEMORYALLOCATOR_HPP
   6:src/../h/../h/../h/memoryAllocator.hpp **** #define PROBA3_PROJECT_BASE_MEMORYALLOCATOR_HPP
   7:src/../h/../h/../h/memoryAllocator.hpp **** 
   8:src/../h/../h/../h/memoryAllocator.hpp **** #include "../lib/hw.h"
   9:src/../h/../h/../h/memoryAllocator.hpp **** 
  10:src/../h/../h/../h/memoryAllocator.hpp **** class MemoryAllocator {
  11:src/../h/../h/../h/memoryAllocator.hpp **** private:
  12:src/../h/../h/../h/memoryAllocator.hpp **** 
  13:src/../h/../h/../h/memoryAllocator.hpp ****     int countSizeBytes(int blockNum){
  14:src/../h/../h/../h/memoryAllocator.hpp ****         return blockNum * MEM_BLOCK_SIZE;
  15:src/../h/../h/../h/memoryAllocator.hpp ****     }
  16:src/../h/../h/../h/memoryAllocator.hpp **** 
  17:src/../h/../h/../h/memoryAllocator.hpp ****     MemoryAllocator() {
  18:src/../h/../h/../h/memoryAllocator.hpp ****         freeList=(struct metaData*)HEAP_START_ADDR;
  19:src/../h/../h/../h/memoryAllocator.hpp ****         // ```` Pocetni size je velicina pocetnog memorijskog prostora
  20:src/../h/../h/../h/memoryAllocator.hpp ****         freeList->size = ((char *)HEAP_END_ADDR - (char *)HEAP_START_ADDR) - sizeof(struct metaData
  21:src/../h/../h/../h/memoryAllocator.hpp ****         freeList->free = 1;
  22:src/../h/../h/../h/memoryAllocator.hpp ****         freeList->next = 0;
  23:src/../h/../h/../h/memoryAllocator.hpp ****     }
  24:src/../h/../h/../h/memoryAllocator.hpp **** 
  25:src/../h/../h/../h/memoryAllocator.hpp ****     struct metaData{
  26:src/../h/../h/../h/memoryAllocator.hpp ****         size_t size;
  27:src/../h/../h/../h/memoryAllocator.hpp ****         int free;
  28:src/../h/../h/../h/memoryAllocator.hpp ****         struct metaData *next;
  29:src/../h/../h/../h/memoryAllocator.hpp ****     } ;
  30:src/../h/../h/../h/memoryAllocator.hpp **** 
  31:src/../h/../h/../h/memoryAllocator.hpp ****     struct metaData* freeList;
  32:src/../h/../h/../h/memoryAllocator.hpp **** 
  33:src/../h/../h/../h/memoryAllocator.hpp ****     void split(struct metaData *fitting_slot,size_t size);
  34:src/../h/../h/../h/memoryAllocator.hpp **** 
  35:src/../h/../h/../h/memoryAllocator.hpp **** public:
  36:src/../h/../h/../h/memoryAllocator.hpp ****     static MemoryAllocator* getInstance(){
  37:src/../h/../h/../h/memoryAllocator.hpp ****         // using static variable
  38:src/../h/../h/../h/memoryAllocator.hpp ****         static MemoryAllocator instance;
  40              		.loc 2 38 9 discriminator 4
  41              		.loc 2 38 32 is_stmt 0 discriminator 4
  42 0024 97070000 		lbu	a5,_ZGVZN15MemoryAllocator11getInstanceEvE8instance
  42      83C70700 
  43 002c 63960704 		bnez	a5,.L3
  44              	.LVL3:
  45              	.LBB12:
  46              	.LBB13:
  47              	.LBB14:
  18:src/../h/../h/../h/memoryAllocator.hpp ****         // ```` Pocetni size je velicina pocetnog memorijskog prostora
  48              		.loc 2 18 9 is_stmt 1
  18:src/../h/../h/../h/memoryAllocator.hpp ****         // ```` Pocetni size je velicina pocetnog memorijskog prostora
GAS LISTING /tmp/cceSu3d0.s 			page 3


  49              		.loc 2 18 17 is_stmt 0
  50 0030 97070000 		la	a5,HEAP_START_ADDR
  50      83B70700 
  51 0038 03B70700 		ld	a4,0(a5)
  52 003c 97060000 		lla	a3,_ZZN15MemoryAllocator11getInstanceEvE8instance
  52      93860600 
  53 0044 23B0E600 		sd	a4,0(a3)
  20:src/../h/../h/../h/memoryAllocator.hpp ****         freeList->free = 1;
  54              		.loc 2 20 9 is_stmt 1
  20:src/../h/../h/../h/memoryAllocator.hpp ****         freeList->free = 1;
  55              		.loc 2 20 27 is_stmt 0
  56 0048 97070000 		la	a5,HEAP_END_ADDR
  56      83B70700 
  57 0050 83B70700 		ld	a5,0(a5)
  20:src/../h/../h/../h/memoryAllocator.hpp ****         freeList->free = 1;
  58              		.loc 2 20 49
  59 0054 B387E740 		sub	a5,a5,a4
  20:src/../h/../h/../h/memoryAllocator.hpp ****         freeList->free = 1;
  60              		.loc 2 20 76
  61 0058 938787FE 		addi	a5,a5,-24
  20:src/../h/../h/../h/memoryAllocator.hpp ****         freeList->free = 1;
  62              		.loc 2 20 24
  63 005c 2330F700 		sd	a5,0(a4)
  21:src/../h/../h/../h/memoryAllocator.hpp ****         freeList->next = 0;
  64              		.loc 2 21 9 is_stmt 1
  65 0060 03B70600 		ld	a4,0(a3)
  21:src/../h/../h/../h/memoryAllocator.hpp ****         freeList->next = 0;
  66              		.loc 2 21 24 is_stmt 0
  67 0064 93071000 		li	a5,1
  68 0068 2324F700 		sw	a5,8(a4)
  22:src/../h/../h/../h/memoryAllocator.hpp ****     }
  69              		.loc 2 22 9 is_stmt 1
  22:src/../h/../h/../h/memoryAllocator.hpp ****     }
  70              		.loc 2 22 24 is_stmt 0
  71 006c 23380700 		sd	zero,16(a4)
  72              	.LVL4:
  73              	.LBE14:
  74              	.LBE13:
  75              	.LBE12:
  76              		.loc 2 38 32
  77 0070 17070000 		sb	a5,_ZGVZN15MemoryAllocator11getInstanceEvE8instance,a4
  77      2300F700 
  78              	.L3:
  39:src/../h/../h/../h/memoryAllocator.hpp ****         return &instance;
  79              		.loc 2 39 9 is_stmt 1
  80              	.LVL5:
  81              	.LBE11:
  82              	.LBE10:
  27:src/syscall_c.cpp **** 
  28:src/syscall_c.cpp ****     void *ret;
  83              		.loc 1 28 5
  29:src/syscall_c.cpp **** 
  30:src/syscall_c.cpp ****     ret = mem->myMalloc(numOfBlock);
  84              		.loc 1 30 5
  85              		.loc 1 30 24 is_stmt 0
  86 0078 17050000 		lla	a0,_ZZN15MemoryAllocator11getInstanceEvE8instance
  86      13050500 
GAS LISTING /tmp/cceSu3d0.s 			page 4


  87 0080 97000000 		call	_ZN15MemoryAllocator8myMallocEm@plt
  87      E7800000 
  88              	.LVL6:
  31:src/syscall_c.cpp **** //    __asm__ volatile ("mv %[ret], a0" : [ret] "=r" (ret));
  32:src/syscall_c.cpp ****     //  printString("\nVraca se u main");
  33:src/syscall_c.cpp ****     return ret;
  89              		.loc 1 33 5 is_stmt 1
  34:src/syscall_c.cpp **** }
  90              		.loc 1 34 1 is_stmt 0
  91 0088 83308100 		ld	ra,8(sp)
  92              		.cfi_restore 1
  93 008c 03340100 		ld	s0,0(sp)
  94              		.cfi_restore 8
  95              		.cfi_def_cfa 2, 16
  96 0090 13010101 		addi	sp,sp,16
  97              		.cfi_def_cfa_offset 0
  98 0094 67800000 		jr	ra
  99              		.cfi_endproc
 100              	.LFE26:
 102              		.align	2
 103              		.globl	_Z8mem_freePv
 105              	_Z8mem_freePv:
 106              	.LFB27:
  35:src/syscall_c.cpp **** 
  36:src/syscall_c.cpp **** int mem_free (void* ptr) {
 107              		.loc 1 36 26 is_stmt 1
 108              		.cfi_startproc
 109              	.LVL7:
 110 0098 130101FF 		addi	sp,sp,-16
 111              		.cfi_def_cfa_offset 16
 112 009c 23348100 		sd	s0,8(sp)
 113              		.cfi_offset 8, -8
 114 00a0 13040101 		addi	s0,sp,16
 115              		.cfi_def_cfa 8, 0
  37:src/syscall_c.cpp ****     uint64 code = MEM_FREE;
 116              		.loc 1 37 5
 117              	.LVL8:
  38:src/syscall_c.cpp ****     __asm__ volatile ("mv a1, %[ptr]" : : [ptr] "r" (ptr));
 118              		.loc 1 38 5
 119              		.loc 1 38 59 is_stmt 0
 120              	#APP
 121              	# 38 "src/syscall_c.cpp" 1
  39              	    __asm__ volatile ("mv a0, %[code]" : : [code] "r" (code));
 122              		mv a1, a0
 123              	# 0 "" 2
 124              		.loc 1 39 5 is_stmt 1
 125              		.loc 1 39 62 is_stmt 0
 126              	#NO_APP
 127 00a8 93072000 		li	a5,2
 128              	#APP
 129              	# 39 "src/syscall_c.cpp" 1
  40              	
  41:src/syscall_c.cpp ****     __asm__ volatile ("ecall");
 130              		mv a0, a5
 131              	# 0 "" 2
 132              		.loc 1 41 5 is_stmt 1
 133              		.loc 1 41 31 is_stmt 0
GAS LISTING /tmp/cceSu3d0.s 			page 5


 134              	# 41 "src/syscall_c.cpp" 1
  42              	
  43:src/syscall_c.cpp ****     int ret;
 135              		ecall
 136              	# 0 "" 2
 137              		.loc 1 43 5 is_stmt 1
  44:src/syscall_c.cpp ****     __asm__ volatile ("mv %[ret], a0" : [ret] "=r" (ret));
 138              		.loc 1 44 5
 139              		.loc 1 44 58 is_stmt 0
 140              	# 44 "src/syscall_c.cpp" 1
  45              	    return ret;
 141              		mv a0, a0
 142              	# 0 "" 2
 143              	.LVL9:
 144              		.loc 1 45 5 is_stmt 1
  46:src/syscall_c.cpp **** }
 145              		.loc 1 46 1 is_stmt 0
 146              	#NO_APP
 147 00b8 1B050500 		sext.w	a0,a0
 148 00bc 03348100 		ld	s0,8(sp)
 149              		.cfi_restore 8
 150              		.cfi_def_cfa 2, 16
 151 00c0 13010101 		addi	sp,sp,16
 152              		.cfi_def_cfa_offset 0
 153 00c4 67800000 		jr	ra
 154              		.cfi_endproc
 155              	.LFE27:
 157              		.section	.rodata.str1.8,"aMS",@progbits,1
 158              		.align	3
 159              	.LC0:
 160 0000 0A68616E 		.string	"\nhandle u thread_create: "
 160      646C6520 
 160      75207468 
 160      72656164 
 160      5F637265 
 161              		.text
 162              		.align	2
 163              		.globl	_Z13thread_createPP3TCBPFvPvES2_
 165              	_Z13thread_createPP3TCBPFvPvES2_:
 166              	.LFB28:
  47:src/syscall_c.cpp **** 
  48:src/syscall_c.cpp **** int thread_create (thread_t* handle, void(*start_routine)(void*), void* arg) {
 167              		.loc 1 48 78 is_stmt 1
 168              		.cfi_startproc
 169              	.LVL10:
 170 00c8 130101FD 		addi	sp,sp,-48
 171              		.cfi_def_cfa_offset 48
 172 00cc 23341102 		sd	ra,40(sp)
 173 00d0 23308102 		sd	s0,32(sp)
 174 00d4 233C9100 		sd	s1,24(sp)
 175 00d8 23382101 		sd	s2,16(sp)
 176 00dc 23343101 		sd	s3,8(sp)
 177 00e0 23304101 		sd	s4,0(sp)
 178              		.cfi_offset 1, -8
 179              		.cfi_offset 8, -16
 180              		.cfi_offset 9, -24
 181              		.cfi_offset 18, -32
GAS LISTING /tmp/cceSu3d0.s 			page 6


 182              		.cfi_offset 19, -40
 183              		.cfi_offset 20, -48
 184 00e4 13040103 		addi	s0,sp,48
 185              		.cfi_def_cfa 8, 0
 186 00e8 93040500 		mv	s1,a0
 187 00ec 13890500 		mv	s2,a1
 188 00f0 93090600 		mv	s3,a2
  49:src/syscall_c.cpp ****     uint64 code = THREAD_CREATE;
 189              		.loc 1 49 5
 190              	.LVL11:
  50:src/syscall_c.cpp ****     void *stack_space = __mem_alloc(sizeof(uint64) * DEFAULT_STACK_SIZE);
 191              		.loc 1 50 5
 192              		.loc 1 50 36 is_stmt 0
 193 00f4 37850000 		li	a0,32768
 194              	.LVL12:
 195 00f8 97000000 		call	__mem_alloc@plt
 195      E7800000 
 196              	.LVL13:
 197 0100 130A0500 		mv	s4,a0
 198              	.LVL14:
  51:src/syscall_c.cpp **** 
  52:src/syscall_c.cpp ****     printString("\nhandle u thread_create: ");
 199              		.loc 1 52 5 is_stmt 1
 200              		.loc 1 52 16 is_stmt 0
 201 0104 17050000 		lla	a0,.LC0
 201      13050500 
 202              	.LVL15:
 203 010c 97000000 		call	_Z11printStringPKc@plt
 203      E7800000 
 204              	.LVL16:
  53:src/syscall_c.cpp ****     printInt((uint64)handle, 16, 0);
 205              		.loc 1 53 5 is_stmt 1
 206              		.loc 1 53 13 is_stmt 0
 207 0114 13060000 		li	a2,0
 208 0118 93050001 		li	a1,16
 209 011c 1B850400 		sext.w	a0,s1
 210 0120 97000000 		call	_Z8printIntiii@plt
 210      E7800000 
 211              	.LVL17:
  54:src/syscall_c.cpp **** 
  55:src/syscall_c.cpp ****     __asm__ volatile ("mv a4, %[stack_space]" : : [stack_space] "r" (stack_space));
 212              		.loc 1 55 5 is_stmt 1
 213              		.loc 1 55 83 is_stmt 0
 214              	#APP
 215              	# 55 "src/syscall_c.cpp" 1
  56              	    __asm__ volatile ("mv a3, %[arg]" : : [arg] "r" (arg));
 216              		mv a4, s4
 217              	# 0 "" 2
 218              		.loc 1 56 5 is_stmt 1
 219              		.loc 1 56 59 is_stmt 0
 220              	# 56 "src/syscall_c.cpp" 1
  57              	    __asm__ volatile ("mv a2, %[body]" : : [body] "r" (start_routine));
 221              		mv a3, s3
 222              	# 0 "" 2
 223              		.loc 1 57 5 is_stmt 1
 224              		.loc 1 57 71 is_stmt 0
 225              	# 57 "src/syscall_c.cpp" 1
GAS LISTING /tmp/cceSu3d0.s 			page 7


  58              	    __asm__ volatile ("mv a1, %[handle]" : : [handle] "r" (handle));
 226              		mv a2, s2
 227              	# 0 "" 2
 228              		.loc 1 58 5 is_stmt 1
 229              		.loc 1 58 68 is_stmt 0
 230              	# 58 "src/syscall_c.cpp" 1
  59              	    __asm__ volatile ("mv a0, %[code]" : : [code] "r" (code));
 231              		mv a1, s1
 232              	# 0 "" 2
 233              		.loc 1 59 5 is_stmt 1
 234              		.loc 1 59 62 is_stmt 0
 235              	#NO_APP
 236 0138 93071001 		li	a5,17
 237              	#APP
 238              	# 59 "src/syscall_c.cpp" 1
  60              	
  61:src/syscall_c.cpp ****     __asm__ volatile ("ecall");
 239              		mv a0, a5
 240              	# 0 "" 2
 241              		.loc 1 61 5 is_stmt 1
 242              		.loc 1 61 31 is_stmt 0
 243              	# 61 "src/syscall_c.cpp" 1
  62              	
  63:src/syscall_c.cpp ****     int ret;
 244              		ecall
 245              	# 0 "" 2
 246              		.loc 1 63 5 is_stmt 1
  64:src/syscall_c.cpp ****     __asm__ volatile ("mv %[ret], a0" : [ret] "=r" (ret));
 247              		.loc 1 64 5
 248              		.loc 1 64 58 is_stmt 0
 249              	# 64 "src/syscall_c.cpp" 1
  65              	    return ret;
 250              		mv a0, a0
 251              	# 0 "" 2
 252              	.LVL18:
 253              		.loc 1 65 5 is_stmt 1
  66:src/syscall_c.cpp ****     /*
  67:src/syscall_c.cpp ****     *handle = TCB::createThread(start_routine, arg, stack_space);
  68:src/syscall_c.cpp ****     if(*handle) return 0;
  69:src/syscall_c.cpp ****     else return -3;
  70:src/syscall_c.cpp ****     */
  71:src/syscall_c.cpp **** }
 254              		.loc 1 71 1 is_stmt 0
 255              	#NO_APP
 256 0148 1B050500 		sext.w	a0,a0
 257 014c 83308102 		ld	ra,40(sp)
 258              		.cfi_restore 1
 259 0150 03340102 		ld	s0,32(sp)
 260              		.cfi_restore 8
 261              		.cfi_def_cfa 2, 48
 262 0154 83348101 		ld	s1,24(sp)
 263              		.cfi_restore 9
 264              	.LVL19:
 265 0158 03390101 		ld	s2,16(sp)
 266              		.cfi_restore 18
 267              	.LVL20:
 268 015c 83398100 		ld	s3,8(sp)
GAS LISTING /tmp/cceSu3d0.s 			page 8


 269              		.cfi_restore 19
 270              	.LVL21:
 271 0160 033A0100 		ld	s4,0(sp)
 272              		.cfi_restore 20
 273              	.LVL22:
 274 0164 13010103 		addi	sp,sp,48
 275              		.cfi_def_cfa_offset 0
 276 0168 67800000 		jr	ra
 277              		.cfi_endproc
 278              	.LFE28:
 280              		.align	2
 281              		.globl	_Z11thread_exitv
 283              	_Z11thread_exitv:
 284              	.LFB29:
  72:src/syscall_c.cpp **** 
  73:src/syscall_c.cpp **** int thread_exit () {
 285              		.loc 1 73 20 is_stmt 1
 286              		.cfi_startproc
 287 016c 130101FF 		addi	sp,sp,-16
 288              		.cfi_def_cfa_offset 16
 289 0170 23348100 		sd	s0,8(sp)
 290              		.cfi_offset 8, -8
 291 0174 13040101 		addi	s0,sp,16
 292              		.cfi_def_cfa 8, 0
  74:src/syscall_c.cpp ****     uint64 code = THREAD_EXIT;
 293              		.loc 1 74 5
 294              	.LVL23:
  75:src/syscall_c.cpp ****     __asm__ volatile ("mv a0, %[code]" : : [code] "r" (code));
 295              		.loc 1 75 5
 296              		.loc 1 75 62 is_stmt 0
 297 0178 93072001 		li	a5,18
 298              	#APP
 299              	# 75 "src/syscall_c.cpp" 1
  76              	
  77:src/syscall_c.cpp ****     __asm__ volatile ("ecall");
 300              		mv a0, a5
 301              	# 0 "" 2
 302              		.loc 1 77 5 is_stmt 1
 303              		.loc 1 77 31 is_stmt 0
 304              	# 77 "src/syscall_c.cpp" 1
  78              	
  79:src/syscall_c.cpp ****     int ret;
 305              		ecall
 306              	# 0 "" 2
 307              		.loc 1 79 5 is_stmt 1
  80:src/syscall_c.cpp ****     __asm__ volatile ("mv %[ret], a0" : [ret] "=r" (ret));
 308              		.loc 1 80 5
 309              		.loc 1 80 58 is_stmt 0
 310              	# 80 "src/syscall_c.cpp" 1
  81              	    return ret;
 311              		mv a0, a0
 312              	# 0 "" 2
 313              	.LVL24:
 314              		.loc 1 81 5 is_stmt 1
  82:src/syscall_c.cpp **** }
 315              		.loc 1 82 1 is_stmt 0
 316              	#NO_APP
GAS LISTING /tmp/cceSu3d0.s 			page 9


 317 0188 1B050500 		sext.w	a0,a0
 318 018c 03348100 		ld	s0,8(sp)
 319              		.cfi_restore 8
 320              		.cfi_def_cfa 2, 16
 321 0190 13010101 		addi	sp,sp,16
 322              		.cfi_def_cfa_offset 0
 323 0194 67800000 		jr	ra
 324              		.cfi_endproc
 325              	.LFE29:
 327              		.align	2
 328              		.globl	_Z15thread_dispatchv
 330              	_Z15thread_dispatchv:
 331              	.LFB30:
  83:src/syscall_c.cpp **** 
  84:src/syscall_c.cpp **** 
  85:src/syscall_c.cpp **** void thread_dispatch (){
 332              		.loc 1 85 24 is_stmt 1
 333              		.cfi_startproc
 334 0198 130101FF 		addi	sp,sp,-16
 335              		.cfi_def_cfa_offset 16
 336 019c 23348100 		sd	s0,8(sp)
 337              		.cfi_offset 8, -8
 338 01a0 13040101 		addi	s0,sp,16
 339              		.cfi_def_cfa 8, 0
  86:src/syscall_c.cpp ****     uint64 code = THREAD_DISPATCH;
 340              		.loc 1 86 5
 341              	.LVL25:
  87:src/syscall_c.cpp ****     __asm__ volatile ("mv a0, %[code]" : : [code] "r" (code));
 342              		.loc 1 87 5
 343              		.loc 1 87 62 is_stmt 0
 344 01a4 93073001 		li	a5,19
 345              	#APP
 346              	# 87 "src/syscall_c.cpp" 1
  88              	
  89:src/syscall_c.cpp ****     __asm__ volatile ("ecall");
 347              		mv a0, a5
 348              	# 0 "" 2
 349              		.loc 1 89 5 is_stmt 1
 350              		.loc 1 89 31 is_stmt 0
 351              	# 89 "src/syscall_c.cpp" 1
  90              	    //TCB::yield();
  91:src/syscall_c.cpp **** }
 352              		ecall
 353              	# 0 "" 2
 354              		.loc 1 91 1
 355              	#NO_APP
 356 01b0 03348100 		ld	s0,8(sp)
 357              		.cfi_restore 8
 358              		.cfi_def_cfa 2, 16
 359 01b4 13010101 		addi	sp,sp,16
 360              		.cfi_def_cfa_offset 0
 361 01b8 67800000 		jr	ra
 362              		.cfi_endproc
 363              	.LFE30:
 365              		.align	2
 366              		.globl	_Z9putThreadP3TCB
 368              	_Z9putThreadP3TCB:
GAS LISTING /tmp/cceSu3d0.s 			page 10


 369              	.LFB31:
  92:src/syscall_c.cpp **** 
  93:src/syscall_c.cpp **** void putThread(TCB* tcb){
 370              		.loc 1 93 25 is_stmt 1
 371              		.cfi_startproc
 372              	.LVL26:
 373 01bc 130101FF 		addi	sp,sp,-16
 374              		.cfi_def_cfa_offset 16
 375 01c0 23348100 		sd	s0,8(sp)
 376              		.cfi_offset 8, -8
 377 01c4 13040101 		addi	s0,sp,16
 378              		.cfi_def_cfa 8, 0
  94:src/syscall_c.cpp ****     uint64 code = PUT_THREAD;
 379              		.loc 1 94 5
 380              	.LVL27:
  95:src/syscall_c.cpp ****     __asm__ volatile ("mv a1, %[tcb]" : : [tcb] "r" (tcb));
 381              		.loc 1 95 5
 382              		.loc 1 95 59 is_stmt 0
 383              	#APP
 384              	# 95 "src/syscall_c.cpp" 1
  96              	    __asm__ volatile ("mv a0, %[code]" : : [code] "r" (code));
 385              		mv a1, a0
 386              	# 0 "" 2
 387              		.loc 1 96 5 is_stmt 1
 388              		.loc 1 96 62 is_stmt 0
 389              	#NO_APP
 390 01cc 93074001 		li	a5,20
 391              	#APP
 392              	# 96 "src/syscall_c.cpp" 1
  97              	
  98:src/syscall_c.cpp ****     __asm__ volatile ("ecall");
 393              		mv a0, a5
 394              	# 0 "" 2
 395              		.loc 1 98 5 is_stmt 1
 396              		.loc 1 98 31 is_stmt 0
 397              	# 98 "src/syscall_c.cpp" 1
  99              	}
 398              		ecall
 399              	# 0 "" 2
 400              		.loc 1 99 1
 401              	#NO_APP
 402 01d8 03348100 		ld	s0,8(sp)
 403              		.cfi_restore 8
 404              		.cfi_def_cfa 2, 16
 405 01dc 13010101 		addi	sp,sp,16
 406              		.cfi_def_cfa_offset 0
 407 01e0 67800000 		jr	ra
 408              		.cfi_endproc
 409              	.LFE31:
 411              		.align	2
 412              		.globl	_Z8sem_openPP4KSemj
 414              	_Z8sem_openPP4KSemj:
 415              	.LFB32:
 100:src/syscall_c.cpp **** 
 101:src/syscall_c.cpp **** int sem_open (sem_t* handle, unsigned init){
 416              		.loc 1 101 44 is_stmt 1
 417              		.cfi_startproc
GAS LISTING /tmp/cceSu3d0.s 			page 11


 418              	.LVL28:
 419 01e4 130101FE 		addi	sp,sp,-32
 420              		.cfi_def_cfa_offset 32
 421 01e8 233C1100 		sd	ra,24(sp)
 422 01ec 23388100 		sd	s0,16(sp)
 423 01f0 23349100 		sd	s1,8(sp)
 424              		.cfi_offset 1, -8
 425              		.cfi_offset 8, -16
 426              		.cfi_offset 9, -24
 427 01f4 13040102 		addi	s0,sp,32
 428              		.cfi_def_cfa 8, 0
 429 01f8 93040500 		mv	s1,a0
 102:src/syscall_c.cpp **** 
 103:src/syscall_c.cpp ****     *handle = KSem::createSem(init);
 430              		.loc 1 103 5
 431              		.loc 1 103 30 is_stmt 0
 432 01fc 13850500 		mv	a0,a1
 433              	.LVL29:
 434 0200 97000000 		call	_ZN4KSem9createSemEj@plt
 434      E7800000 
 435              	.LVL30:
 436              		.loc 1 103 13
 437 0208 23B0A400 		sd	a0,0(s1)
 104:src/syscall_c.cpp **** 
 105:src/syscall_c.cpp ****     return 0;
 438              		.loc 1 105 5 is_stmt 1
 106:src/syscall_c.cpp **** }
 439              		.loc 1 106 1 is_stmt 0
 440 020c 13050000 		li	a0,0
 441 0210 83308101 		ld	ra,24(sp)
 442              		.cfi_restore 1
 443 0214 03340101 		ld	s0,16(sp)
 444              		.cfi_restore 8
 445              		.cfi_def_cfa 2, 32
 446 0218 83348100 		ld	s1,8(sp)
 447              		.cfi_restore 9
 448              	.LVL31:
 449 021c 13010102 		addi	sp,sp,32
 450              		.cfi_def_cfa_offset 0
 451 0220 67800000 		jr	ra
 452              		.cfi_endproc
 453              	.LFE32:
 455              		.align	2
 456              		.globl	_Z9sem_closeP4KSem
 458              	_Z9sem_closeP4KSem:
 459              	.LFB33:
 107:src/syscall_c.cpp **** 
 108:src/syscall_c.cpp **** 
 109:src/syscall_c.cpp **** int sem_close (sem_t handle){
 460              		.loc 1 109 29 is_stmt 1
 461              		.cfi_startproc
 462              	.LVL32:
 463 0224 130101FF 		addi	sp,sp,-16
 464              		.cfi_def_cfa_offset 16
 465 0228 23348100 		sd	s0,8(sp)
 466              		.cfi_offset 8, -8
 467 022c 13040101 		addi	s0,sp,16
GAS LISTING /tmp/cceSu3d0.s 			page 12


 468              		.cfi_def_cfa 8, 0
 110:src/syscall_c.cpp **** 
 111:src/syscall_c.cpp ****     return 0;
 469              		.loc 1 111 5
 112:src/syscall_c.cpp **** }
 470              		.loc 1 112 1 is_stmt 0
 471 0230 13050000 		li	a0,0
 472              	.LVL33:
 473 0234 03348100 		ld	s0,8(sp)
 474              		.cfi_restore 8
 475              		.cfi_def_cfa 2, 16
 476 0238 13010101 		addi	sp,sp,16
 477              		.cfi_def_cfa_offset 0
 478 023c 67800000 		jr	ra
 479              		.cfi_endproc
 480              	.LFE33:
 482              		.align	2
 483              		.globl	_Z8sem_waitP4KSem
 485              	_Z8sem_waitP4KSem:
 486              	.LFB34:
 113:src/syscall_c.cpp **** 
 114:src/syscall_c.cpp **** int sem_wait (sem_t id){
 487              		.loc 1 114 24 is_stmt 1
 488              		.cfi_startproc
 489              	.LVL34:
 490 0240 130101FF 		addi	sp,sp,-16
 491              		.cfi_def_cfa_offset 16
 492 0244 23341100 		sd	ra,8(sp)
 493 0248 23308100 		sd	s0,0(sp)
 494              		.cfi_offset 1, -8
 495              		.cfi_offset 8, -16
 496 024c 13040101 		addi	s0,sp,16
 497              		.cfi_def_cfa 8, 0
 115:src/syscall_c.cpp **** 
 116:src/syscall_c.cpp ****     id->wait();
 498              		.loc 1 116 5
 499              		.loc 1 116 13 is_stmt 0
 500 0250 97000000 		call	_ZN4KSem4waitEv@plt
 500      E7800000 
 501              	.LVL35:
 117:src/syscall_c.cpp **** 
 118:src/syscall_c.cpp ****     return 0;
 502              		.loc 1 118 5 is_stmt 1
 119:src/syscall_c.cpp **** }
 503              		.loc 1 119 1 is_stmt 0
 504 0258 13050000 		li	a0,0
 505 025c 83308100 		ld	ra,8(sp)
 506              		.cfi_restore 1
 507 0260 03340100 		ld	s0,0(sp)
 508              		.cfi_restore 8
 509              		.cfi_def_cfa 2, 16
 510 0264 13010101 		addi	sp,sp,16
 511              		.cfi_def_cfa_offset 0
 512 0268 67800000 		jr	ra
 513              		.cfi_endproc
 514              	.LFE34:
 516              		.align	2
GAS LISTING /tmp/cceSu3d0.s 			page 13


 517              		.globl	_Z10sem_signalP4KSem
 519              	_Z10sem_signalP4KSem:
 520              	.LFB35:
 120:src/syscall_c.cpp **** 
 121:src/syscall_c.cpp **** int sem_signal (sem_t id){
 521              		.loc 1 121 26 is_stmt 1
 522              		.cfi_startproc
 523              	.LVL36:
 524 026c 130101FF 		addi	sp,sp,-16
 525              		.cfi_def_cfa_offset 16
 526 0270 23341100 		sd	ra,8(sp)
 527 0274 23308100 		sd	s0,0(sp)
 528              		.cfi_offset 1, -8
 529              		.cfi_offset 8, -16
 530 0278 13040101 		addi	s0,sp,16
 531              		.cfi_def_cfa 8, 0
 122:src/syscall_c.cpp **** 
 123:src/syscall_c.cpp ****     id->signal();
 532              		.loc 1 123 5
 533              		.loc 1 123 15 is_stmt 0
 534 027c 97000000 		call	_ZN4KSem6signalEv@plt
 534      E7800000 
 535              	.LVL37:
 124:src/syscall_c.cpp **** 
 125:src/syscall_c.cpp ****     return 0;
 536              		.loc 1 125 5 is_stmt 1
 126:src/syscall_c.cpp **** }...
 537              		.loc 1 126 1 is_stmt 0
 538 0284 13050000 		li	a0,0
 539 0288 83308100 		ld	ra,8(sp)
 540              		.cfi_restore 1
 541 028c 03340100 		ld	s0,0(sp)
 542              		.cfi_restore 8
 543              		.cfi_def_cfa 2, 16
 544 0290 13010101 		addi	sp,sp,16
 545              		.cfi_def_cfa_offset 0
 546 0294 67800000 		jr	ra
 547              		.cfi_endproc
 548              	.LFE35:
 550              		.weak	_ZGVZN15MemoryAllocator11getInstanceEvE8instance
 551              		.section	.bss._ZGVZN15MemoryAllocator11getInstanceEvE8instance,"awG",@nobits,_ZGVZN15MemoryAllocat
 552              		.align	3
 555              	_ZGVZN15MemoryAllocator11getInstanceEvE8instance:
 556 0000 00000000 		.zero	8
 556      00000000 
 557              		.weak	_ZZN15MemoryAllocator11getInstanceEvE8instance
 558              		.section	.bss._ZZN15MemoryAllocator11getInstanceEvE8instance,"awG",@nobits,_ZZN15MemoryAllocator11
 559              		.align	3
 562              	_ZZN15MemoryAllocator11getInstanceEvE8instance:
 563 0000 00000000 		.zero	8
 563      00000000 
 564              		.text
 565              	.Letext0:
 566              		.file 3 "src/../h/../lib/hw.h"
 567              		.file 4 "src/../h/../h/../h/list.hpp"
 568              		.file 5 "src/../h/../h/tcb.hpp"
 569              		.file 6 "src/../h/../h/kSem.hpp"
GAS LISTING /tmp/cceSu3d0.s 			page 14


 570              		.file 7 "src/../h/../h/../lib/mem.h"
 571              		.file 8 "src/printing.hpp"
GAS LISTING /tmp/cceSu3d0.s 			page 15

