GAS LISTING /tmp/cciKveu0.s 			page 1


   1              		.file	"syscall_cpp.cpp"
   2              		.option pic
   3              		.option norelax
   4              		.text
   5              	.Ltext0:
   6              		.section	.text._ZN6Thread3runEv,"axG",@progbits,_ZN6Thread3runEv,comdat
   7              		.align	2
   8              		.weak	_ZN6Thread3runEv
  10              	_ZN6Thread3runEv:
  11              	.LFB26:
  12              		.file 1 "src/../h/syscall_cpp.hpp"
   1:src/../h/syscall_cpp.hpp **** //
   2:src/../h/syscall_cpp.hpp **** // Created by os on 8/20/22.
   3:src/../h/syscall_cpp.hpp **** //
   4:src/../h/syscall_cpp.hpp **** 
   5:src/../h/syscall_cpp.hpp **** #ifndef PROBA3_PROJECT_BASE_SYSCALL_CPP_HPP
   6:src/../h/syscall_cpp.hpp **** #define PROBA3_PROJECT_BASE_SYSCALL_CPP_HPP
   7:src/../h/syscall_cpp.hpp **** 
   8:src/../h/syscall_cpp.hpp **** #include "syscall_c.h"
   9:src/../h/syscall_cpp.hpp **** 
  10:src/../h/syscall_cpp.hpp **** /*
  11:src/../h/syscall_cpp.hpp **** void* ::operator new (size_t);
  12:src/../h/syscall_cpp.hpp **** void ::operator delete (void*);
  13:src/../h/syscall_cpp.hpp **** */
  14:src/../h/syscall_cpp.hpp **** 
  15:src/../h/syscall_cpp.hpp **** class Thread {
  16:src/../h/syscall_cpp.hpp **** public:
  17:src/../h/syscall_cpp.hpp ****     Thread (void (*body)(void*), void* arg);
  18:src/../h/syscall_cpp.hpp **** 
  19:src/../h/syscall_cpp.hpp ****     virtual ~Thread ();
  20:src/../h/syscall_cpp.hpp **** 
  21:src/../h/syscall_cpp.hpp ****     int start ();
  22:src/../h/syscall_cpp.hpp **** 
  23:src/../h/syscall_cpp.hpp ****     static void dispatch ();
  24:src/../h/syscall_cpp.hpp **** 
  25:src/../h/syscall_cpp.hpp ****     static int sleep (time_t);
  26:src/../h/syscall_cpp.hpp **** 
  27:src/../h/syscall_cpp.hpp ****     static void starter (void*);
  28:src/../h/syscall_cpp.hpp **** protected:
  29:src/../h/syscall_cpp.hpp ****     Thread ();
  30:src/../h/syscall_cpp.hpp **** 
  31:src/../h/syscall_cpp.hpp ****     virtual void run () {}
  13              		.loc 1 31 18
  14              		.cfi_startproc
  15              	.LVL0:
  16 0000 130101FF 		addi	sp,sp,-16
  17              		.cfi_def_cfa_offset 16
  18 0004 23348100 		sd	s0,8(sp)
  19              		.cfi_offset 8, -8
  20 0008 13040101 		addi	s0,sp,16
  21              		.cfi_def_cfa 8, 0
  22              		.loc 1 31 26 is_stmt 0
  23 000c 03348100 		ld	s0,8(sp)
  24              		.cfi_restore 8
  25              		.cfi_def_cfa 2, 16
  26 0010 13010101 		addi	sp,sp,16
  27              		.cfi_def_cfa_offset 0
GAS LISTING /tmp/cciKveu0.s 			page 2


  28 0014 67800000 		jr	ra
  29              		.cfi_endproc
  30              	.LFE26:
  32              		.text
  33              		.align	2
  34              		.globl	_ZN6Thread7starterEPv
  36              	_ZN6Thread7starterEPv:
  37              	.LFB57:
  38              		.file 2 "src/syscall_cpp.cpp"
   1:src/syscall_cpp.cpp **** //
   2:src/syscall_cpp.cpp **** // Created by os on 8/20/22.
   3:src/syscall_cpp.cpp **** //
   4:src/syscall_cpp.cpp **** 
   5:src/syscall_cpp.cpp **** #include "../h/syscall_cpp.hpp"
   6:src/syscall_cpp.cpp **** #include "../h/syscall_c.h"
   7:src/syscall_cpp.cpp **** #include "../h/riscv.hpp"
   8:src/syscall_cpp.cpp **** 
   9:src/syscall_cpp.cpp **** Thread::Thread(void (*body)(void *), void *arg) {
  10:src/syscall_cpp.cpp ****     MASK_INTR
  11:src/syscall_cpp.cpp **** 
  12:src/syscall_cpp.cpp ****     void *stack_space = mem_alloc(sizeof(uint64) * DEFAULT_STACK_SIZE);
  13:src/syscall_cpp.cpp **** 
  14:src/syscall_cpp.cpp ****     myHandle = TCB::createTCB(body, arg, stack_space);
  15:src/syscall_cpp.cpp **** 
  16:src/syscall_cpp.cpp ****     UMASK_INTR
  17:src/syscall_cpp.cpp **** }
  18:src/syscall_cpp.cpp **** 
  19:src/syscall_cpp.cpp **** int Thread::start() {
  20:src/syscall_cpp.cpp ****         if(myHandle == nullptr) {
  21:src/syscall_cpp.cpp **** 
  22:src/syscall_cpp.cpp ****             printString("Usao u start");
  23:src/syscall_cpp.cpp ****             void *stack_space = mem_alloc(sizeof(uint64) * DEFAULT_STACK_SIZE);
  24:src/syscall_cpp.cpp ****             myHandle = TCB::createTCB(starter, this, stack_space);
  25:src/syscall_cpp.cpp ****             myHandle->TCB::putTCBinQueue(myHandle);
  26:src/syscall_cpp.cpp ****         } else putThread(myHandle);
  27:src/syscall_cpp.cpp ****         return 0;
  28:src/syscall_cpp.cpp **** }
  29:src/syscall_cpp.cpp **** 
  30:src/syscall_cpp.cpp **** void Thread::dispatch() {
  31:src/syscall_cpp.cpp ****     thread_dispatch();
  32:src/syscall_cpp.cpp **** }
  33:src/syscall_cpp.cpp **** 
  34:src/syscall_cpp.cpp **** int Thread::sleep(time_t) {
  35:src/syscall_cpp.cpp **** 
  36:src/syscall_cpp.cpp ****     return 0;
  37:src/syscall_cpp.cpp **** }
  38:src/syscall_cpp.cpp **** 
  39:src/syscall_cpp.cpp **** Thread::~Thread() {
  40:src/syscall_cpp.cpp ****     delete myHandle;
  41:src/syscall_cpp.cpp **** }
  42:src/syscall_cpp.cpp **** 
  43:src/syscall_cpp.cpp **** Thread::Thread() : myHandle(nullptr) {}
  44:src/syscall_cpp.cpp **** 
  45:src/syscall_cpp.cpp **** void Thread::starter(void* toStart) {
  39              		.loc 2 45 37 is_stmt 1
  40              		.cfi_startproc
  41              	.LVL1:
GAS LISTING /tmp/cciKveu0.s 			page 3


  46:src/syscall_cpp.cpp ****     //printString("\nSTARTER\n");
  47:src/syscall_cpp.cpp ****     Thread* t = (Thread*)toStart;
  42              		.loc 2 47 5
  48:src/syscall_cpp.cpp ****     if(t) t->run();
  43              		.loc 2 48 5
  44 0000 63080502 		beqz	a0,.L6
  45:src/syscall_cpp.cpp ****     //printString("\nSTARTER\n");
  45              		.loc 2 45 37 is_stmt 0 discriminator 1
  46 0004 130101FF 		addi	sp,sp,-16
  47              		.cfi_def_cfa_offset 16
  48 0008 23341100 		sd	ra,8(sp)
  49 000c 23308100 		sd	s0,0(sp)
  50              		.cfi_offset 1, -8
  51              		.cfi_offset 8, -16
  52 0010 13040101 		addi	s0,sp,16
  53              		.cfi_def_cfa 8, 0
  54              		.loc 2 48 11 is_stmt 1 discriminator 1
  55              		.loc 2 48 18 is_stmt 0 discriminator 1
  56 0014 83370500 		ld	a5,0(a0)
  57 0018 83B70701 		ld	a5,16(a5)
  58              		.loc 2 48 17 discriminator 1
  59 001c E7800700 		jalr	a5
  60              	.LVL2:
  49:src/syscall_cpp.cpp **** }...
  61              		.loc 2 49 1 discriminator 1
  62 0020 83308100 		ld	ra,8(sp)
  63              		.cfi_restore 1
  64 0024 03340100 		ld	s0,0(sp)
  65              		.cfi_restore 8
  66              		.cfi_def_cfa 2, 16
  67 0028 13010101 		addi	sp,sp,16
  68              		.cfi_def_cfa_offset 0
  69 002c 67800000 		jr	ra
  70              	.LVL3:
  71              	.L6:
  72 0030 67800000 		ret
  73              		.cfi_endproc
  74              	.LFE57:
  76              		.align	2
  77              		.globl	_ZN6ThreadD2Ev
  79              	_ZN6ThreadD2Ev:
  80              	.LFB51:
  39:src/syscall_cpp.cpp **** Thread::~Thread() {
  81              		.loc 2 39 1 is_stmt 1
  82              		.cfi_startproc
  83              	.LVL4:
  84 0034 130101FE 		addi	sp,sp,-32
  85              		.cfi_def_cfa_offset 32
  86 0038 233C1100 		sd	ra,24(sp)
  87 003c 23388100 		sd	s0,16(sp)
  88 0040 23349100 		sd	s1,8(sp)
  89              		.cfi_offset 1, -8
  90              		.cfi_offset 8, -16
  91              		.cfi_offset 9, -24
  92 0044 13040102 		addi	s0,sp,32
  93              		.cfi_def_cfa 8, 0
  94              	.LBB14:
GAS LISTING /tmp/cciKveu0.s 			page 4


  39:src/syscall_cpp.cpp **** Thread::~Thread() {
  95              		.loc 2 39 17 is_stmt 0
  96 0048 97070000 		lla	a5,_ZTV6Thread+16
  96      93870700 
  97 0050 2330F500 		sd	a5,0(a0)
  40:src/syscall_cpp.cpp ****     delete myHandle;
  98              		.loc 2 40 5 is_stmt 1
  40:src/syscall_cpp.cpp ****     delete myHandle;
  99              		.loc 2 40 12 is_stmt 0
 100 0054 83348500 		ld	s1,8(a0)
  40:src/syscall_cpp.cpp ****     delete myHandle;
 101              		.loc 2 40 20
 102 0058 63800402 		beqz	s1,.L9
 103              	.LVL5:
 104              	.LBB15:
 105              	.LBB16:
 106              		.file 3 "src/../h/../h/tcb.hpp"
   1:src/../h/../h/tcb.hpp **** //
   2:src/../h/../h/tcb.hpp **** // Created by os on 8/17/22.
   3:src/../h/../h/tcb.hpp **** //
   4:src/../h/../h/tcb.hpp **** 
   5:src/../h/../h/tcb.hpp **** #ifndef PROBA3_PROJECT_BASE_TCB_HPP
   6:src/../h/../h/tcb.hpp **** #define PROBA3_PROJECT_BASE_TCB_HPP
   7:src/../h/../h/tcb.hpp **** 
   8:src/../h/../h/tcb.hpp **** #include "../lib/hw.h"
   9:src/../h/../h/tcb.hpp **** #include "../h/scheduler.hpp"
  10:src/../h/../h/tcb.hpp **** #include "../h/memoryAllocator.hpp"
  11:src/../h/../h/tcb.hpp **** #include "../lib/mem.h"
  12:src/../h/../h/tcb.hpp **** 
  13:src/../h/../h/tcb.hpp **** 
  14:src/../h/../h/tcb.hpp **** 
  15:src/../h/../h/tcb.hpp **** #define THREADS_NUM 64
  16:src/../h/../h/tcb.hpp **** 
  17:src/../h/../h/tcb.hpp **** //  IZLASKOM IZ F-JA WOKRERA NITI SE IMPLICINTNO ZAVRSAVAJU
  18:src/../h/../h/tcb.hpp **** 
  19:src/../h/../h/tcb.hpp **** extern void printString(char const *string);
  20:src/../h/../h/tcb.hpp **** 
  21:src/../h/../h/tcb.hpp **** 
  22:src/../h/../h/tcb.hpp **** void *operator new(uint64 n);
  23:src/../h/../h/tcb.hpp **** void *operator new[](uint64 n);
  24:src/../h/../h/tcb.hpp **** 
  25:src/../h/../h/tcb.hpp **** typedef TCB* thread_t;
  26:src/../h/../h/tcb.hpp **** 
  27:src/../h/../h/tcb.hpp **** class TCB {
  28:src/../h/../h/tcb.hpp **** public:
  29:src/../h/../h/tcb.hpp **** 
  30:src/../h/../h/tcb.hpp **** 
  31:src/../h/../h/tcb.hpp **** 
  32:src/../h/../h/tcb.hpp ****     static void dispatch();
  33:src/../h/../h/tcb.hpp **** 
  34:src/../h/../h/tcb.hpp ****     ~TCB() { delete[] stack;
 107              		.loc 3 34 14 is_stmt 1
 108              		.loc 3 34 23 is_stmt 0
 109 005c 03B50401 		ld	a0,16(s1)
 110              	.LVL6:
 111              		.loc 3 34 28
 112 0060 63060500 		beqz	a0,.L11
GAS LISTING /tmp/cciKveu0.s 			page 5


 113              		.loc 3 34 23
 114 0064 97000000 		call	_ZdaPv@plt
 114      E7800000 
 115              	.LVL7:
 116              	.L11:
 117              	.LBE16:
 118              	.LBE15:
  40:src/syscall_cpp.cpp ****     delete myHandle;
 119              		.loc 2 40 12
 120 006c 13850400 		mv	a0,s1
 121 0070 97000000 		call	_ZdlPv@plt
 121      E7800000 
 122              	.LVL8:
 123              	.L9:
 124              	.LBE14:
  41:src/syscall_cpp.cpp **** }
 125              		.loc 2 41 1
 126 0078 83308101 		ld	ra,24(sp)
 127              		.cfi_restore 1
 128 007c 03340101 		ld	s0,16(sp)
 129              		.cfi_restore 8
 130              		.cfi_def_cfa 2, 32
 131 0080 83348100 		ld	s1,8(sp)
 132              		.cfi_restore 9
 133 0084 13010102 		addi	sp,sp,32
 134              		.cfi_def_cfa_offset 0
 135 0088 67800000 		jr	ra
 136              		.cfi_endproc
 137              	.LFE51:
 139              		.globl	_ZN6ThreadD1Ev
 140              		.set	_ZN6ThreadD1Ev,_ZN6ThreadD2Ev
 141              		.align	2
 142              		.globl	_ZN6ThreadD0Ev
 144              	_ZN6ThreadD0Ev:
 145              	.LFB53:
  39:src/syscall_cpp.cpp **** Thread::~Thread() {
 146              		.loc 2 39 1 is_stmt 1
 147              		.cfi_startproc
 148              	.LVL9:
 149 008c 130101FE 		addi	sp,sp,-32
 150              		.cfi_def_cfa_offset 32
 151 0090 233C1100 		sd	ra,24(sp)
 152 0094 23388100 		sd	s0,16(sp)
 153 0098 23349100 		sd	s1,8(sp)
 154              		.cfi_offset 1, -8
 155              		.cfi_offset 8, -16
 156              		.cfi_offset 9, -24
 157 009c 13040102 		addi	s0,sp,32
 158              		.cfi_def_cfa 8, 0
 159 00a0 93040500 		mv	s1,a0
  41:src/syscall_cpp.cpp **** }
 160              		.loc 2 41 1 is_stmt 0
 161 00a4 97000000 		call	_ZN6ThreadD1Ev
 161      E7800000 
 162              	.LVL10:
 163 00ac 13850400 		mv	a0,s1
 164 00b0 97000000 		call	_ZdlPv@plt
GAS LISTING /tmp/cciKveu0.s 			page 6


 164      E7800000 
 165              	.LVL11:
 166 00b8 83308101 		ld	ra,24(sp)
 167              		.cfi_restore 1
 168 00bc 03340101 		ld	s0,16(sp)
 169              		.cfi_restore 8
 170              		.cfi_def_cfa 2, 32
 171 00c0 83348100 		ld	s1,8(sp)
 172              		.cfi_restore 9
 173              	.LVL12:
 174 00c4 13010102 		addi	sp,sp,32
 175              		.cfi_def_cfa_offset 0
 176 00c8 67800000 		jr	ra
 177              		.cfi_endproc
 178              	.LFE53:
 180              		.align	2
 181              		.globl	_ZN6ThreadC2EPFvPvES0_
 183              	_ZN6ThreadC2EPFvPvES0_:
 184              	.LFB45:
   9:src/syscall_cpp.cpp **** Thread::Thread(void (*body)(void *), void *arg) {
 185              		.loc 2 9 1 is_stmt 1
 186              		.cfi_startproc
 187              	.LVL13:
 188 00cc 130101FC 		addi	sp,sp,-64
 189              		.cfi_def_cfa_offset 64
 190 00d0 233C1102 		sd	ra,56(sp)
 191 00d4 23388102 		sd	s0,48(sp)
 192 00d8 23349102 		sd	s1,40(sp)
 193 00dc 23302103 		sd	s2,32(sp)
 194 00e0 233C3101 		sd	s3,24(sp)
 195 00e4 23384101 		sd	s4,16(sp)
 196              		.cfi_offset 1, -8
 197              		.cfi_offset 8, -16
 198              		.cfi_offset 9, -24
 199              		.cfi_offset 18, -32
 200              		.cfi_offset 19, -40
 201              		.cfi_offset 20, -48
 202 00e8 13040104 		addi	s0,sp,64
 203              		.cfi_def_cfa 8, 0
 204 00ec 13090500 		mv	s2,a0
 205 00f0 93890500 		mv	s3,a1
 206 00f4 130A0600 		mv	s4,a2
 207              	.LBB17:
   9:src/syscall_cpp.cpp **** Thread::Thread(void (*body)(void *), void *arg) {
 208              		.loc 2 9 47 is_stmt 0
 209 00f8 97070000 		lla	a5,_ZTV6Thread+16
 209      93870700 
 210 0100 2330F500 		sd	a5,0(a0)
 211              	.LBB18:
  10:src/syscall_cpp.cpp ****     MASK_INTR
 212              		.loc 2 10 5 is_stmt 1
 213              	.LBB19:
 214              	.LBB20:
 215              		.file 4 "src/../h/riscv.hpp"
   1:src/../h/riscv.hpp **** //
   2:src/../h/riscv.hpp **** // Created by os on 8/12/22.
   3:src/../h/riscv.hpp **** //
GAS LISTING /tmp/cciKveu0.s 			page 7


   4:src/../h/riscv.hpp **** 
   5:src/../h/riscv.hpp **** #ifndef PROBA3_PROJECT_BASE_RISCV_HPP
   6:src/../h/riscv.hpp **** #define PROBA3_PROJECT_BASE_RISCV_HPP
   7:src/../h/riscv.hpp **** 
   8:src/../h/riscv.hpp **** #include "../lib/hw.h"
   9:src/../h/riscv.hpp **** 
  10:src/../h/riscv.hpp **** #define MASK_INTR uint64 sstatus = Riscv::r_sstatus(); Riscv::mc_sstatus(Riscv::SSTATUS_SIE);
  11:src/../h/riscv.hpp **** #define UMASK_INTR Riscv::ms_sstatus(sstatus & Riscv::SSTATUS_SIE ? Riscv::SSTATUS_SIE : 0);
  12:src/../h/riscv.hpp **** 
  13:src/../h/riscv.hpp **** class Riscv {
  14:src/../h/riscv.hpp **** 
  15:src/../h/riscv.hpp **** public:
  16:src/../h/riscv.hpp **** 
  17:src/../h/riscv.hpp ****     // pop sstatus, spp and sstatus, spie bits
  18:src/../h/riscv.hpp ****     static void popSppSpie();
  19:src/../h/riscv.hpp **** 
  20:src/../h/riscv.hpp ****     //read register scause
  21:src/../h/riscv.hpp ****     static uint64 r_scause();
  22:src/../h/riscv.hpp **** 
  23:src/../h/riscv.hpp ****     //write register scause
  24:src/../h/riscv.hpp ****     static void w_scause(uint64 scause);
  25:src/../h/riscv.hpp **** 
  26:src/../h/riscv.hpp ****     //read register sepc
  27:src/../h/riscv.hpp ****     static uint64 r_sepc();
  28:src/../h/riscv.hpp **** 
  29:src/../h/riscv.hpp ****     //write register sepc
  30:src/../h/riscv.hpp ****     static void w_sepc(uint64 sepc);
  31:src/../h/riscv.hpp **** 
  32:src/../h/riscv.hpp ****     //read register stvec
  33:src/../h/riscv.hpp ****     static uint64 r_stvec();
  34:src/../h/riscv.hpp **** 
  35:src/../h/riscv.hpp ****     //write register stvec
  36:src/../h/riscv.hpp ****     static void w_stvec(uint64 stvec);
  37:src/../h/riscv.hpp **** 
  38:src/../h/riscv.hpp ****     //read register stval
  39:src/../h/riscv.hpp ****     static uint64 r_stval();
  40:src/../h/riscv.hpp **** 
  41:src/../h/riscv.hpp ****     //write register stval
  42:src/../h/riscv.hpp ****     static void w_stval(uint64 stval);
  43:src/../h/riscv.hpp **** 
  44:src/../h/riscv.hpp ****     enum BitMaskSip {
  45:src/../h/riscv.hpp ****         SIP_SSIP = (1 << 1), // P kao pending
  46:src/../h/riscv.hpp ****         SIP_STIP = (1 << 5),
  47:src/../h/riscv.hpp ****         SIP_SEIP = (1 << 9),
  48:src/../h/riscv.hpp ****     };
  49:src/../h/riscv.hpp **** 
  50:src/../h/riscv.hpp ****     enum BitMaskSstatus {
  51:src/../h/riscv.hpp ****         SSTATUS_SIE = (1 << 1),
  52:src/../h/riscv.hpp ****         SSTATUS_SPIE = (1 << 5),
  53:src/../h/riscv.hpp ****         SSTATUS_SPP = (1 << 8),
  54:src/../h/riscv.hpp ****     };
  55:src/../h/riscv.hpp **** 
  56:src/../h/riscv.hpp **** 
  57:src/../h/riscv.hpp ****     // mask set register sip
  58:src/../h/riscv.hpp ****     static void ms_sip(uint64 mask);
  59:src/../h/riscv.hpp **** 
  60:src/../h/riscv.hpp ****     // mask clear register sip
GAS LISTING /tmp/cciKveu0.s 			page 8


  61:src/../h/riscv.hpp ****     static void mc_sip(uint64 mask);
  62:src/../h/riscv.hpp **** 
  63:src/../h/riscv.hpp ****     // read register sstatus
  64:src/../h/riscv.hpp ****     static uint64 r_sstatus();
  65:src/../h/riscv.hpp **** 
  66:src/../h/riscv.hpp ****     // write register sstatus
  67:src/../h/riscv.hpp ****     static void w_sstatus(uint64 sstatus);
  68:src/../h/riscv.hpp **** 
  69:src/../h/riscv.hpp ****     static void ms_sstatus(uint64 mask);
  70:src/../h/riscv.hpp **** 
  71:src/../h/riscv.hpp ****     // mask clear register sip
  72:src/../h/riscv.hpp ****     static void mc_sstatus(uint64 mask);
  73:src/../h/riscv.hpp **** 
  74:src/../h/riscv.hpp ****     // read register sip
  75:src/../h/riscv.hpp ****     static uint64 r_sip();
  76:src/../h/riscv.hpp **** 
  77:src/../h/riscv.hpp ****     //write register sip
  78:src/../h/riscv.hpp ****     static void w_sip(uint64 stval);
  79:src/../h/riscv.hpp **** 
  80:src/../h/riscv.hpp ****     // supervisor trap
  81:src/../h/riscv.hpp ****     static void supervisorTrap();
  82:src/../h/riscv.hpp **** 
  83:src/../h/riscv.hpp **** private:
  84:src/../h/riscv.hpp **** 
  85:src/../h/riscv.hpp ****     // supervisor trap handler
  86:src/../h/riscv.hpp ****     static void handleSupervisorTrap();
  87:src/../h/riscv.hpp **** 
  88:src/../h/riscv.hpp **** };
  89:src/../h/riscv.hpp **** 
  90:src/../h/riscv.hpp **** inline uint64 Riscv::r_scause() {
  91:src/../h/riscv.hpp ****     uint64 volatile scause;
  92:src/../h/riscv.hpp ****     __asm__ volatile ("csrr %[scause], scause" : [scause] "=r" (scause));
  93:src/../h/riscv.hpp ****     return scause;
  94:src/../h/riscv.hpp **** }
  95:src/../h/riscv.hpp **** 
  96:src/../h/riscv.hpp **** inline void Riscv::w_scause(uint64 scause) {
  97:src/../h/riscv.hpp ****     __asm__ volatile ("csrw scause, %[scause]" : : [scause] "r" (scause));
  98:src/../h/riscv.hpp **** }
  99:src/../h/riscv.hpp **** 
 100:src/../h/riscv.hpp **** 
 101:src/../h/riscv.hpp **** inline uint64 Riscv::r_sepc() {
 102:src/../h/riscv.hpp ****     uint64 volatile sepc;
 103:src/../h/riscv.hpp ****     __asm__ volatile ("csrr %[sepc], sepc" : [sepc] "=r" (sepc));
 104:src/../h/riscv.hpp ****     return sepc;
 105:src/../h/riscv.hpp **** }
 106:src/../h/riscv.hpp **** 
 107:src/../h/riscv.hpp **** inline void Riscv::w_sepc(uint64 sepc) {
 108:src/../h/riscv.hpp ****     __asm__ volatile ("csrw sepc, %[sepc]" : : [sepc] "r" (sepc));
 109:src/../h/riscv.hpp **** }
 110:src/../h/riscv.hpp **** 
 111:src/../h/riscv.hpp **** 
 112:src/../h/riscv.hpp **** inline uint64 Riscv::r_stvec() {
 113:src/../h/riscv.hpp ****     uint64 volatile stvec;
 114:src/../h/riscv.hpp ****     __asm__ volatile ("csrr %[stvec], stvec" : [stvec] "=r" (stvec));
 115:src/../h/riscv.hpp ****     return stvec;
 116:src/../h/riscv.hpp **** }
 117:src/../h/riscv.hpp **** 
GAS LISTING /tmp/cciKveu0.s 			page 9


 118:src/../h/riscv.hpp **** inline void Riscv::w_stvec(uint64 stvec) {
 119:src/../h/riscv.hpp ****     __asm__ volatile ("csrw stvec, %[stvec]" : : [stvec] "r" (stvec));
 120:src/../h/riscv.hpp **** }
 121:src/../h/riscv.hpp **** 
 122:src/../h/riscv.hpp **** 
 123:src/../h/riscv.hpp **** inline uint64 Riscv::r_stval() {
 124:src/../h/riscv.hpp ****     uint64 volatile stval;
 125:src/../h/riscv.hpp ****     __asm__ volatile ("csrr %[stval], stval" : [stval] "=r" (stval));
 126:src/../h/riscv.hpp ****     return stval;
 127:src/../h/riscv.hpp **** }
 128:src/../h/riscv.hpp **** 
 129:src/../h/riscv.hpp **** inline void Riscv::w_stval(uint64 stval) {
 130:src/../h/riscv.hpp ****     __asm__ volatile ("csrw stval, %[stval]" : : [stval] "r" (stval));
 131:src/../h/riscv.hpp **** }
 132:src/../h/riscv.hpp **** 
 133:src/../h/riscv.hpp **** inline uint64 Riscv::r_sstatus()  {
 134:src/../h/riscv.hpp ****     uint64 volatile sstatus;
 216              		.loc 4 134 5
 135:src/../h/riscv.hpp ****     __asm__ volatile ("csrr %[sstatus], sstatus" : [sstatus] "=r" (sstatus));
 217              		.loc 4 135 5
 218              		.loc 4 135 77 is_stmt 0
 219              	#APP
 220              	# 135 "src/../h/riscv.hpp" 1
 136              	    return sstatus;
 221              		csrr a5, sstatus
 222              	# 0 "" 2
 223              	#NO_APP
 224 0108 2334F4FC 		sd	a5,-56(s0)
 225              		.loc 4 136 5 is_stmt 1
 226              		.loc 4 136 12 is_stmt 0
 227 010c 833484FC 		ld	s1,-56(s0)
 228              	.LVL14:
 229              	.LBE20:
 230              	.LBE19:
  10:src/syscall_cpp.cpp ****     MASK_INTR
 231              		.loc 2 10 5 is_stmt 1
 232              	.LBB21:
 233              	.LBB22:
 137:src/../h/riscv.hpp **** }
 138:src/../h/riscv.hpp **** 
 139:src/../h/riscv.hpp **** inline void Riscv::w_sstatus(uint64 sstatus) {
 140:src/../h/riscv.hpp ****     __asm__ volatile ("csrw sstatus, %[sstatus]" : : [sstatus] "r" (sstatus));
 141:src/../h/riscv.hpp **** }
 142:src/../h/riscv.hpp **** 
 143:src/../h/riscv.hpp **** 
 144:src/../h/riscv.hpp **** inline void Riscv::ms_sip(uint64 mask) {
 145:src/../h/riscv.hpp ****     __asm__ volatile ("csrs sip, %[mask]" : : [mask] "r" (mask));
 146:src/../h/riscv.hpp **** }
 147:src/../h/riscv.hpp **** 
 148:src/../h/riscv.hpp **** inline void Riscv::mc_sip(uint64 mask) {
 149:src/../h/riscv.hpp ****     __asm__ volatile ("crsc sip, %[mask]" : : [mask] "r" (mask));
 150:src/../h/riscv.hpp **** }
 151:src/../h/riscv.hpp **** 
 152:src/../h/riscv.hpp **** 
 153:src/../h/riscv.hpp **** inline uint64 Riscv::r_sip() {
 154:src/../h/riscv.hpp ****     uint64 volatile sip;
 155:src/../h/riscv.hpp ****     __asm__ volatile ("csrr %[sip], sip" : [sip] "=r" (sip));
GAS LISTING /tmp/cciKveu0.s 			page 10


 156:src/../h/riscv.hpp ****     return sip;
 157:src/../h/riscv.hpp **** }
 158:src/../h/riscv.hpp **** 
 159:src/../h/riscv.hpp **** inline void Riscv::w_sip(uint64 sip) {
 160:src/../h/riscv.hpp ****     __asm__ volatile ("csrw sip, %[sip]" : : [sip] "r" (sip));
 161:src/../h/riscv.hpp **** }
 162:src/../h/riscv.hpp **** 
 163:src/../h/riscv.hpp **** 
 164:src/../h/riscv.hpp **** inline void Riscv::ms_sstatus(uint64 mask) {
 165:src/../h/riscv.hpp ****     __asm__ volatile ("csrs sstatus, %[mask]" : : [mask] "r" (mask));
 166:src/../h/riscv.hpp **** }
 167:src/../h/riscv.hpp **** 
 168:src/../h/riscv.hpp **** inline void Riscv::mc_sstatus(uint64 mask) {
 169:src/../h/riscv.hpp ****     __asm__ volatile ("csrc sstatus, %[mask]" : : [mask] "r" (mask));
 234              		.loc 4 169 5
 235              		.loc 4 169 69 is_stmt 0
 236 0110 93072000 		li	a5,2
 237              	#APP
 238              	# 169 "src/../h/riscv.hpp" 1
 170              	}
 239              		csrc sstatus, a5
 240              	# 0 "" 2
 241              	.LVL15:
 242              	#NO_APP
 243              	.LBE22:
 244              	.LBE21:
  12:src/syscall_cpp.cpp ****     void *stack_space = mem_alloc(sizeof(uint64) * DEFAULT_STACK_SIZE);
 245              		.loc 2 12 5 is_stmt 1
  12:src/syscall_cpp.cpp ****     void *stack_space = mem_alloc(sizeof(uint64) * DEFAULT_STACK_SIZE);
 246              		.loc 2 12 34 is_stmt 0
 247 0118 37850000 		li	a0,32768
 248              	.LVL16:
 249 011c 97000000 		call	_Z9mem_allocm@plt
 249      E7800000 
 250              	.LVL17:
 251 0124 13060500 		mv	a2,a0
 252              	.LVL18:
  14:src/syscall_cpp.cpp ****     myHandle = TCB::createTCB(body, arg, stack_space);
 253              		.loc 2 14 5 is_stmt 1
  14:src/syscall_cpp.cpp ****     myHandle = TCB::createTCB(body, arg, stack_space);
 254              		.loc 2 14 30 is_stmt 0
 255 0128 93050A00 		mv	a1,s4
 256 012c 13850900 		mv	a0,s3
 257              	.LVL19:
 258 0130 97000000 		call	_ZN3TCB9createTCBEPFvPvES0_S0_@plt
 258      E7800000 
 259              	.LVL20:
  14:src/syscall_cpp.cpp ****     myHandle = TCB::createTCB(body, arg, stack_space);
 260              		.loc 2 14 14
 261 0138 2334A900 		sd	a0,8(s2)
  16:src/syscall_cpp.cpp ****     UMASK_INTR
 262              		.loc 2 16 5 is_stmt 1
 263 013c 9B840400 		sext.w	s1,s1
 264              	.LVL21:
 265 0140 93F42400 		andi	s1,s1,2
 266 0144 9B840400 		sext.w	s1,s1
 267              	.LVL22:
GAS LISTING /tmp/cciKveu0.s 			page 11


 268              	.LBB23:
 269              	.LBB24:
 165:src/../h/riscv.hpp **** }
 270              		.loc 4 165 5
 165:src/../h/riscv.hpp **** }
 271              		.loc 4 165 69 is_stmt 0
 272              	#APP
 273              	# 165 "src/../h/riscv.hpp" 1
 274              		csrs sstatus, s1
 275              	# 0 "" 2
 276              	.LVL23:
 277              	#NO_APP
 278              	.LBE24:
 279              	.LBE23:
 280              	.LBE18:
 281              	.LBE17:
  17:src/syscall_cpp.cpp **** }
 282              		.loc 2 17 1
 283 014c 83308103 		ld	ra,56(sp)
 284              		.cfi_restore 1
 285 0150 03340103 		ld	s0,48(sp)
 286              		.cfi_restore 8
 287              		.cfi_def_cfa 2, 64
 288 0154 83348102 		ld	s1,40(sp)
 289              		.cfi_restore 9
 290 0158 03390102 		ld	s2,32(sp)
 291              		.cfi_restore 18
 292              	.LVL24:
 293 015c 83398101 		ld	s3,24(sp)
 294              		.cfi_restore 19
 295              	.LVL25:
 296 0160 033A0101 		ld	s4,16(sp)
 297              		.cfi_restore 20
 298              	.LVL26:
 299 0164 13010104 		addi	sp,sp,64
 300              		.cfi_def_cfa_offset 0
 301 0168 67800000 		jr	ra
 302              		.cfi_endproc
 303              	.LFE45:
 305              		.globl	_ZN6ThreadC1EPFvPvES0_
 306              		.set	_ZN6ThreadC1EPFvPvES0_,_ZN6ThreadC2EPFvPvES0_
 307              		.section	.rodata.str1.8,"aMS",@progbits,1
 308              		.align	3
 309              	.LC0:
 310 0000 5573616F 		.string	"Usao u start"
 310      20752073 
 310      74617274 
 310      00
 311              		.text
 312              		.align	2
 313              		.globl	_ZN6Thread5startEv
 315              	_ZN6Thread5startEv:
 316              	.LFB47:
  19:src/syscall_cpp.cpp **** int Thread::start() {
 317              		.loc 2 19 21 is_stmt 1
 318              		.cfi_startproc
 319              	.LVL27:
GAS LISTING /tmp/cciKveu0.s 			page 12


 320 016c 130101FE 		addi	sp,sp,-32
 321              		.cfi_def_cfa_offset 32
 322 0170 233C1100 		sd	ra,24(sp)
 323 0174 23388100 		sd	s0,16(sp)
 324 0178 23349100 		sd	s1,8(sp)
 325              		.cfi_offset 1, -8
 326              		.cfi_offset 8, -16
 327              		.cfi_offset 9, -24
 328 017c 13040102 		addi	s0,sp,32
 329              		.cfi_def_cfa 8, 0
 330 0180 93040500 		mv	s1,a0
  20:src/syscall_cpp.cpp ****         if(myHandle == nullptr) {
 331              		.loc 2 20 9
 332              	.LBB25:
  20:src/syscall_cpp.cpp ****         if(myHandle == nullptr) {
 333              		.loc 2 20 12 is_stmt 0
 334 0184 03358500 		ld	a0,8(a0)
 335              	.LVL28:
  20:src/syscall_cpp.cpp ****         if(myHandle == nullptr) {
 336              		.loc 2 20 9
 337 0188 63020502 		beqz	a0,.L21
  26:src/syscall_cpp.cpp ****         } else putThread(myHandle);
 338              		.loc 2 26 16 is_stmt 1
  26:src/syscall_cpp.cpp ****         } else putThread(myHandle);
 339              		.loc 2 26 25 is_stmt 0
 340 018c 97000000 		call	_Z9putThreadP3TCB@plt
 340      E7800000 
 341              	.LVL29:
 342              	.L19:
 343              	.LBE25:
  27:src/syscall_cpp.cpp ****         return 0;
 344              		.loc 2 27 9 is_stmt 1
  28:src/syscall_cpp.cpp **** }
 345              		.loc 2 28 1 is_stmt 0
 346 0194 13050000 		li	a0,0
 347 0198 83308101 		ld	ra,24(sp)
 348              		.cfi_remember_state
 349              		.cfi_restore 1
 350 019c 03340101 		ld	s0,16(sp)
 351              		.cfi_restore 8
 352              		.cfi_def_cfa 2, 32
 353 01a0 83348100 		ld	s1,8(sp)
 354              		.cfi_restore 9
 355              	.LVL30:
 356 01a4 13010102 		addi	sp,sp,32
 357              		.cfi_def_cfa_offset 0
 358 01a8 67800000 		jr	ra
 359              	.LVL31:
 360              	.L21:
 361              		.cfi_restore_state
 362              	.LBB27:
 363              	.LBB26:
  22:src/syscall_cpp.cpp ****             printString("Usao u start");
 364              		.loc 2 22 13 is_stmt 1
  22:src/syscall_cpp.cpp ****             printString("Usao u start");
 365              		.loc 2 22 24 is_stmt 0
 366 01ac 17050000 		lla	a0,.LC0
GAS LISTING /tmp/cciKveu0.s 			page 13


 366      13050500 
 367 01b4 97000000 		call	_Z11printStringPKc@plt
 367      E7800000 
 368              	.LVL32:
  23:src/syscall_cpp.cpp ****             void *stack_space = mem_alloc(sizeof(uint64) * DEFAULT_STACK_SIZE);
 369              		.loc 2 23 13 is_stmt 1
  23:src/syscall_cpp.cpp ****             void *stack_space = mem_alloc(sizeof(uint64) * DEFAULT_STACK_SIZE);
 370              		.loc 2 23 42 is_stmt 0
 371 01bc 37850000 		li	a0,32768
 372 01c0 97000000 		call	_Z9mem_allocm@plt
 372      E7800000 
 373              	.LVL33:
 374 01c8 13060500 		mv	a2,a0
 375              	.LVL34:
  24:src/syscall_cpp.cpp ****             myHandle = TCB::createTCB(starter, this, stack_space);
 376              		.loc 2 24 13 is_stmt 1
  24:src/syscall_cpp.cpp ****             myHandle = TCB::createTCB(starter, this, stack_space);
 377              		.loc 2 24 38 is_stmt 0
 378 01cc 93850400 		mv	a1,s1
 379 01d0 17050000 		lla	a0,_ZN6Thread7starterEPv
 379      13050500 
 380              	.LVL35:
 381 01d8 97000000 		call	_ZN3TCB9createTCBEPFvPvES0_S0_@plt
 381      E7800000 
 382              	.LVL36:
 383 01e0 93050500 		mv	a1,a0
  24:src/syscall_cpp.cpp ****             myHandle = TCB::createTCB(starter, this, stack_space);
 384              		.loc 2 24 22
 385 01e4 23B4A400 		sd	a0,8(s1)
  25:src/syscall_cpp.cpp ****             myHandle->TCB::putTCBinQueue(myHandle);
 386              		.loc 2 25 13 is_stmt 1
  25:src/syscall_cpp.cpp ****             myHandle->TCB::putTCBinQueue(myHandle);
 387              		.loc 2 25 41 is_stmt 0
 388 01e8 97000000 		call	_ZN3TCB13putTCBinQueueEPS_@plt
 388      E7800000 
 389              	.LVL37:
 390              	.LBE26:
 391 01f0 6FF05FFA 		j	.L19
 392              	.LBE27:
 393              		.cfi_endproc
 394              	.LFE47:
 396              		.align	2
 397              		.globl	_ZN6Thread8dispatchEv
 399              	_ZN6Thread8dispatchEv:
 400              	.LFB48:
  30:src/syscall_cpp.cpp **** void Thread::dispatch() {
 401              		.loc 2 30 25 is_stmt 1
 402              		.cfi_startproc
 403 01f4 130101FF 		addi	sp,sp,-16
 404              		.cfi_def_cfa_offset 16
 405 01f8 23341100 		sd	ra,8(sp)
 406 01fc 23308100 		sd	s0,0(sp)
 407              		.cfi_offset 1, -8
 408              		.cfi_offset 8, -16
 409 0200 13040101 		addi	s0,sp,16
 410              		.cfi_def_cfa 8, 0
  31:src/syscall_cpp.cpp ****     thread_dispatch();
GAS LISTING /tmp/cciKveu0.s 			page 14


 411              		.loc 2 31 5
  31:src/syscall_cpp.cpp ****     thread_dispatch();
 412              		.loc 2 31 20 is_stmt 0
 413 0204 97000000 		call	_Z15thread_dispatchv@plt
 413      E7800000 
 414              	.LVL38:
  32:src/syscall_cpp.cpp **** }
 415              		.loc 2 32 1
 416 020c 83308100 		ld	ra,8(sp)
 417              		.cfi_restore 1
 418 0210 03340100 		ld	s0,0(sp)
 419              		.cfi_restore 8
 420              		.cfi_def_cfa 2, 16
 421 0214 13010101 		addi	sp,sp,16
 422              		.cfi_def_cfa_offset 0
 423 0218 67800000 		jr	ra
 424              		.cfi_endproc
 425              	.LFE48:
 427              		.align	2
 428              		.globl	_ZN6Thread5sleepEm
 430              	_ZN6Thread5sleepEm:
 431              	.LFB49:
  34:src/syscall_cpp.cpp **** int Thread::sleep(time_t) {
 432              		.loc 2 34 27 is_stmt 1
 433              		.cfi_startproc
 434 021c 130101FF 		addi	sp,sp,-16
 435              		.cfi_def_cfa_offset 16
 436 0220 23348100 		sd	s0,8(sp)
 437              		.cfi_offset 8, -8
 438 0224 13040101 		addi	s0,sp,16
 439              		.cfi_def_cfa 8, 0
  36:src/syscall_cpp.cpp ****     return 0;
 440              		.loc 2 36 5
  37:src/syscall_cpp.cpp **** }
 441              		.loc 2 37 1 is_stmt 0
 442 0228 13050000 		li	a0,0
 443 022c 03348100 		ld	s0,8(sp)
 444              		.cfi_restore 8
 445              		.cfi_def_cfa 2, 16
 446 0230 13010101 		addi	sp,sp,16
 447              		.cfi_def_cfa_offset 0
 448 0234 67800000 		jr	ra
 449              		.cfi_endproc
 450              	.LFE49:
 452              		.align	2
 453              		.globl	_ZN6ThreadC2Ev
 455              	_ZN6ThreadC2Ev:
 456              	.LFB55:
  43:src/syscall_cpp.cpp **** Thread::Thread() : myHandle(nullptr) {}
 457              		.loc 2 43 1 is_stmt 1
 458              		.cfi_startproc
 459              	.LVL39:
 460 0238 130101FF 		addi	sp,sp,-16
 461              		.cfi_def_cfa_offset 16
 462 023c 23348100 		sd	s0,8(sp)
 463              		.cfi_offset 8, -8
 464 0240 13040101 		addi	s0,sp,16
GAS LISTING /tmp/cciKveu0.s 			page 15


 465              		.cfi_def_cfa 8, 0
 466              	.LBB28:
  43:src/syscall_cpp.cpp **** Thread::Thread() : myHandle(nullptr) {}
 467              		.loc 2 43 36 is_stmt 0
 468 0244 97070000 		lla	a5,_ZTV6Thread+16
 468      93870700 
 469 024c 2330F500 		sd	a5,0(a0)
 470 0250 23340500 		sd	zero,8(a0)
 471              	.LBE28:
  43:src/syscall_cpp.cpp **** Thread::Thread() : myHandle(nullptr) {}
 472              		.loc 2 43 39
 473 0254 03348100 		ld	s0,8(sp)
 474              		.cfi_restore 8
 475              		.cfi_def_cfa 2, 16
 476 0258 13010101 		addi	sp,sp,16
 477              		.cfi_def_cfa_offset 0
 478 025c 67800000 		jr	ra
 479              		.cfi_endproc
 480              	.LFE55:
 482              		.globl	_ZN6ThreadC1Ev
 483              		.set	_ZN6ThreadC1Ev,_ZN6ThreadC2Ev
 484              		.weak	_ZTV6Thread
 485              		.section	.data.rel.ro.local._ZTV6Thread,"awG",@progbits,_ZTV6Thread,comdat
 486              		.align	3
 489              	_ZTV6Thread:
 490 0000 00000000 		.dword	0
 490      00000000 
 491 0008 00000000 		.dword	0
 491      00000000 
 492 0010 00000000 		.dword	_ZN6ThreadD1Ev
 492      00000000 
 493 0018 00000000 		.dword	_ZN6ThreadD0Ev
 493      00000000 
 494 0020 00000000 		.dword	_ZN6Thread3runEv
 494      00000000 
 495              		.text
 496              	.Letext0:
 497              		.file 5 "src/../h/../lib/hw.h"
 498              		.file 6 "src/../h/syscall_c.h"
GAS LISTING /tmp/cciKveu0.s 			page 16


DEFINED SYMBOLS
                            *ABS*:0000000000000000 syscall_cpp.cpp
     /tmp/cciKveu0.s:10     .text._ZN6Thread3runEv:0000000000000000 _ZN6Thread3runEv
     /tmp/cciKveu0.s:14     .text._ZN6Thread3runEv:0000000000000000 .L0 
     /tmp/cciKveu0.s:16     .text._ZN6Thread3runEv:0000000000000000 .L0 
     /tmp/cciKveu0.s:17     .text._ZN6Thread3runEv:0000000000000004 .L0 
     /tmp/cciKveu0.s:19     .text._ZN6Thread3runEv:0000000000000008 .L0 
     /tmp/cciKveu0.s:21     .text._ZN6Thread3runEv:000000000000000c .L0 
     /tmp/cciKveu0.s:23     .text._ZN6Thread3runEv:000000000000000c .L0 
     /tmp/cciKveu0.s:24     .text._ZN6Thread3runEv:0000000000000010 .L0 
     /tmp/cciKveu0.s:25     .text._ZN6Thread3runEv:0000000000000010 .L0 
     /tmp/cciKveu0.s:27     .text._ZN6Thread3runEv:0000000000000014 .L0 
     /tmp/cciKveu0.s:29     .text._ZN6Thread3runEv:0000000000000018 .L0 
     /tmp/cciKveu0.s:36     .text:0000000000000000 _ZN6Thread7starterEPv
     /tmp/cciKveu0.s:40     .text:0000000000000000 .L0 
     /tmp/cciKveu0.s:42     .text:0000000000000000 .L0 
     /tmp/cciKveu0.s:43     .text:0000000000000000 .L0 
     /tmp/cciKveu0.s:44     .text:0000000000000000 .L0 
     /tmp/cciKveu0.s:46     .text:0000000000000004 .L0 
     /tmp/cciKveu0.s:47     .text:0000000000000008 .L0 
     /tmp/cciKveu0.s:50     .text:0000000000000010 .L0 
     /tmp/cciKveu0.s:51     .text:0000000000000010 .L0 
     /tmp/cciKveu0.s:53     .text:0000000000000014 .L0 
     /tmp/cciKveu0.s:55     .text:0000000000000014 .L0 
     /tmp/cciKveu0.s:56     .text:0000000000000014 .L0 
     /tmp/cciKveu0.s:59     .text:000000000000001c .L0 
     /tmp/cciKveu0.s:62     .text:0000000000000020 .L0 
     /tmp/cciKveu0.s:63     .text:0000000000000024 .L0 
     /tmp/cciKveu0.s:65     .text:0000000000000028 .L0 
     /tmp/cciKveu0.s:66     .text:0000000000000028 .L0 
     /tmp/cciKveu0.s:68     .text:000000000000002c .L0 
     /tmp/cciKveu0.s:73     .text:0000000000000034 .L0 
     /tmp/cciKveu0.s:79     .text:0000000000000034 _ZN6ThreadD2Ev
     /tmp/cciKveu0.s:82     .text:0000000000000034 .L0 
     /tmp/cciKveu0.s:84     .text:0000000000000034 .L0 
     /tmp/cciKveu0.s:85     .text:0000000000000038 .L0 
     /tmp/cciKveu0.s:89     .text:0000000000000044 .L0 
     /tmp/cciKveu0.s:90     .text:0000000000000044 .L0 
     /tmp/cciKveu0.s:91     .text:0000000000000044 .L0 
     /tmp/cciKveu0.s:93     .text:0000000000000048 .L0 
     /tmp/cciKveu0.s:489    .data.rel.ro.local._ZTV6Thread:0000000000000000 _ZTV6Thread
     /tmp/cciKveu0.s:96     .text:0000000000000048 .L0 
     /tmp/cciKveu0.s:99     .text:0000000000000054 .L0 
     /tmp/cciKveu0.s:100    .text:0000000000000054 .L0 
     /tmp/cciKveu0.s:102    .text:0000000000000058 .L0 
     /tmp/cciKveu0.s:108    .text:000000000000005c .L0 
     /tmp/cciKveu0.s:109    .text:000000000000005c .L0 
     /tmp/cciKveu0.s:112    .text:0000000000000060 .L0 
     /tmp/cciKveu0.s:114    .text:0000000000000064 .L0 
     /tmp/cciKveu0.s:120    .text:000000000000006c .L0 
     /tmp/cciKveu0.s:126    .text:0000000000000078 .L0 
     /tmp/cciKveu0.s:127    .text:000000000000007c .L0 
     /tmp/cciKveu0.s:129    .text:0000000000000080 .L0 
     /tmp/cciKveu0.s:130    .text:0000000000000080 .L0 
     /tmp/cciKveu0.s:132    .text:0000000000000084 .L0 
     /tmp/cciKveu0.s:134    .text:0000000000000088 .L0 
     /tmp/cciKveu0.s:136    .text:000000000000008c .L0 
GAS LISTING /tmp/cciKveu0.s 			page 17


     /tmp/cciKveu0.s:79     .text:0000000000000034 _ZN6ThreadD1Ev
     /tmp/cciKveu0.s:144    .text:000000000000008c _ZN6ThreadD0Ev
     /tmp/cciKveu0.s:147    .text:000000000000008c .L0 
     /tmp/cciKveu0.s:149    .text:000000000000008c .L0 
     /tmp/cciKveu0.s:150    .text:0000000000000090 .L0 
     /tmp/cciKveu0.s:154    .text:000000000000009c .L0 
     /tmp/cciKveu0.s:155    .text:000000000000009c .L0 
     /tmp/cciKveu0.s:156    .text:000000000000009c .L0 
     /tmp/cciKveu0.s:158    .text:00000000000000a0 .L0 
     /tmp/cciKveu0.s:161    .text:00000000000000a4 .L0 
     /tmp/cciKveu0.s:167    .text:00000000000000bc .L0 
     /tmp/cciKveu0.s:169    .text:00000000000000c0 .L0 
     /tmp/cciKveu0.s:170    .text:00000000000000c0 .L0 
     /tmp/cciKveu0.s:172    .text:00000000000000c4 .L0 
     /tmp/cciKveu0.s:175    .text:00000000000000c8 .L0 
     /tmp/cciKveu0.s:177    .text:00000000000000cc .L0 
     /tmp/cciKveu0.s:183    .text:00000000000000cc _ZN6ThreadC2EPFvPvES0_
     /tmp/cciKveu0.s:186    .text:00000000000000cc .L0 
     /tmp/cciKveu0.s:188    .text:00000000000000cc .L0 
     /tmp/cciKveu0.s:189    .text:00000000000000d0 .L0 
     /tmp/cciKveu0.s:196    .text:00000000000000e8 .L0 
     /tmp/cciKveu0.s:197    .text:00000000000000e8 .L0 
     /tmp/cciKveu0.s:198    .text:00000000000000e8 .L0 
     /tmp/cciKveu0.s:199    .text:00000000000000e8 .L0 
     /tmp/cciKveu0.s:200    .text:00000000000000e8 .L0 
     /tmp/cciKveu0.s:201    .text:00000000000000e8 .L0 
     /tmp/cciKveu0.s:203    .text:00000000000000ec .L0 
     /tmp/cciKveu0.s:209    .text:00000000000000f8 .L0 
     /tmp/cciKveu0.s:216    .text:0000000000000104 .L0 
     /tmp/cciKveu0.s:217    .text:0000000000000104 .L0 
     /tmp/cciKveu0.s:218    .text:0000000000000104 .L0 
  src/../h/riscv.hpp:135    .text:0000000000000104 .L0 
     /tmp/cciKveu0.s:226    .text:000000000000010c .L0 
     /tmp/cciKveu0.s:227    .text:000000000000010c .L0 
     /tmp/cciKveu0.s:234    .text:0000000000000110 .L0 
     /tmp/cciKveu0.s:235    .text:0000000000000110 .L0 
     /tmp/cciKveu0.s:236    .text:0000000000000110 .L0 
     /tmp/cciKveu0.s:246    .text:0000000000000118 .L0 
     /tmp/cciKveu0.s:247    .text:0000000000000118 .L0 
     /tmp/cciKveu0.s:254    .text:0000000000000128 .L0 
     /tmp/cciKveu0.s:255    .text:0000000000000128 .L0 
     /tmp/cciKveu0.s:261    .text:0000000000000138 .L0 
     /tmp/cciKveu0.s:263    .text:000000000000013c .L0 
     /tmp/cciKveu0.s:271    .text:0000000000000148 .L0 
  src/../h/riscv.hpp:165    .text:0000000000000148 .L0 
     /tmp/cciKveu0.s:283    .text:000000000000014c .L0 
     /tmp/cciKveu0.s:284    .text:0000000000000150 .L0 
     /tmp/cciKveu0.s:286    .text:0000000000000154 .L0 
     /tmp/cciKveu0.s:287    .text:0000000000000154 .L0 
     /tmp/cciKveu0.s:289    .text:0000000000000158 .L0 
     /tmp/cciKveu0.s:291    .text:000000000000015c .L0 
     /tmp/cciKveu0.s:294    .text:0000000000000160 .L0 
     /tmp/cciKveu0.s:297    .text:0000000000000164 .L0 
     /tmp/cciKveu0.s:300    .text:0000000000000168 .L0 
     /tmp/cciKveu0.s:302    .text:000000000000016c .L0 
     /tmp/cciKveu0.s:183    .text:00000000000000cc _ZN6ThreadC1EPFvPvES0_
     /tmp/cciKveu0.s:315    .text:000000000000016c _ZN6Thread5startEv
GAS LISTING /tmp/cciKveu0.s 			page 18


     /tmp/cciKveu0.s:318    .text:000000000000016c .L0 
     /tmp/cciKveu0.s:320    .text:000000000000016c .L0 
     /tmp/cciKveu0.s:321    .text:0000000000000170 .L0 
     /tmp/cciKveu0.s:325    .text:000000000000017c .L0 
     /tmp/cciKveu0.s:326    .text:000000000000017c .L0 
     /tmp/cciKveu0.s:327    .text:000000000000017c .L0 
     /tmp/cciKveu0.s:329    .text:0000000000000180 .L0 
     /tmp/cciKveu0.s:333    .text:0000000000000184 .L0 
     /tmp/cciKveu0.s:334    .text:0000000000000184 .L0 
     /tmp/cciKveu0.s:337    .text:0000000000000188 .L0 
     /tmp/cciKveu0.s:339    .text:000000000000018c .L0 
     /tmp/cciKveu0.s:340    .text:000000000000018c .L0 
     /tmp/cciKveu0.s:345    .text:0000000000000194 .L0 
     /tmp/cciKveu0.s:346    .text:0000000000000194 .L0 
     /tmp/cciKveu0.s:348    .text:000000000000019c .L0 
     /tmp/cciKveu0.s:349    .text:000000000000019c .L0 
     /tmp/cciKveu0.s:351    .text:00000000000001a0 .L0 
     /tmp/cciKveu0.s:352    .text:00000000000001a0 .L0 
     /tmp/cciKveu0.s:354    .text:00000000000001a4 .L0 
     /tmp/cciKveu0.s:357    .text:00000000000001a8 .L0 
     /tmp/cciKveu0.s:361    .text:00000000000001ac .L0 
     /tmp/cciKveu0.s:365    .text:00000000000001ac .L0 
     /tmp/cciKveu0.s:366    .text:00000000000001ac .L0 
     /tmp/cciKveu0.s:370    .text:00000000000001bc .L0 
     /tmp/cciKveu0.s:371    .text:00000000000001bc .L0 
     /tmp/cciKveu0.s:377    .text:00000000000001cc .L0 
     /tmp/cciKveu0.s:378    .text:00000000000001cc .L0 
     /tmp/cciKveu0.s:385    .text:00000000000001e4 .L0 
     /tmp/cciKveu0.s:387    .text:00000000000001e8 .L0 
     /tmp/cciKveu0.s:388    .text:00000000000001e8 .L0 
     /tmp/cciKveu0.s:393    .text:00000000000001f4 .L0 
     /tmp/cciKveu0.s:399    .text:00000000000001f4 _ZN6Thread8dispatchEv
     /tmp/cciKveu0.s:402    .text:00000000000001f4 .L0 
     /tmp/cciKveu0.s:403    .text:00000000000001f4 .L0 
     /tmp/cciKveu0.s:404    .text:00000000000001f8 .L0 
     /tmp/cciKveu0.s:407    .text:0000000000000200 .L0 
     /tmp/cciKveu0.s:408    .text:0000000000000200 .L0 
     /tmp/cciKveu0.s:410    .text:0000000000000204 .L0 
     /tmp/cciKveu0.s:412    .text:0000000000000204 .L0 
     /tmp/cciKveu0.s:413    .text:0000000000000204 .L0 
     /tmp/cciKveu0.s:416    .text:000000000000020c .L0 
     /tmp/cciKveu0.s:417    .text:0000000000000210 .L0 
     /tmp/cciKveu0.s:419    .text:0000000000000214 .L0 
     /tmp/cciKveu0.s:420    .text:0000000000000214 .L0 
     /tmp/cciKveu0.s:422    .text:0000000000000218 .L0 
     /tmp/cciKveu0.s:424    .text:000000000000021c .L0 
     /tmp/cciKveu0.s:430    .text:000000000000021c _ZN6Thread5sleepEm
     /tmp/cciKveu0.s:433    .text:000000000000021c .L0 
     /tmp/cciKveu0.s:434    .text:000000000000021c .L0 
     /tmp/cciKveu0.s:435    .text:0000000000000220 .L0 
     /tmp/cciKveu0.s:437    .text:0000000000000224 .L0 
     /tmp/cciKveu0.s:439    .text:0000000000000228 .L0 
     /tmp/cciKveu0.s:441    .text:0000000000000228 .L0 
     /tmp/cciKveu0.s:442    .text:0000000000000228 .L0 
     /tmp/cciKveu0.s:444    .text:0000000000000230 .L0 
     /tmp/cciKveu0.s:445    .text:0000000000000230 .L0 
     /tmp/cciKveu0.s:447    .text:0000000000000234 .L0 
GAS LISTING /tmp/cciKveu0.s 			page 19


     /tmp/cciKveu0.s:449    .text:0000000000000238 .L0 
     /tmp/cciKveu0.s:455    .text:0000000000000238 _ZN6ThreadC2Ev
     /tmp/cciKveu0.s:458    .text:0000000000000238 .L0 
     /tmp/cciKveu0.s:460    .text:0000000000000238 .L0 
     /tmp/cciKveu0.s:461    .text:000000000000023c .L0 
     /tmp/cciKveu0.s:463    .text:0000000000000240 .L0 
     /tmp/cciKveu0.s:465    .text:0000000000000244 .L0 
     /tmp/cciKveu0.s:468    .text:0000000000000244 .L0 
     /tmp/cciKveu0.s:473    .text:0000000000000254 .L0 
     /tmp/cciKveu0.s:474    .text:0000000000000258 .L0 
     /tmp/cciKveu0.s:475    .text:0000000000000258 .L0 
     /tmp/cciKveu0.s:477    .text:000000000000025c .L0 
     /tmp/cciKveu0.s:479    .text:0000000000000260 .L0 
     /tmp/cciKveu0.s:455    .text:0000000000000238 _ZN6ThreadC1Ev
     /tmp/cciKveu0.s:32     .text._ZN6Thread3runEv:0000000000000018 .L0 
     /tmp/cciKveu0.s:499    .text:0000000000000260 .L0 
     /tmp/cciKveu0.s:96     .text:0000000000000048 .L0 
     /tmp/cciKveu0.s:209    .text:00000000000000f8 .L0 
     /tmp/cciKveu0.s:309    .rodata.str1.8:0000000000000000 .LC0
     /tmp/cciKveu0.s:366    .text:00000000000001ac .L0 
     /tmp/cciKveu0.s:379    .text:00000000000001d0 .L0 
     /tmp/cciKveu0.s:468    .text:0000000000000244 .L0 
     /tmp/cciKveu0.s:71     .text:0000000000000030 .L6
     /tmp/cciKveu0.s:123    .text:0000000000000078 .L9
     /tmp/cciKveu0.s:116    .text:000000000000006c .L11
     /tmp/cciKveu0.s:360    .text:00000000000001ac .L21
     /tmp/cciKveu0.s:342    .text:0000000000000194 .L19
     /tmp/cciKveu0.s:1832   .debug_abbrev:0000000000000000 .Ldebug_abbrev0
     /tmp/cciKveu0.s:3484   .debug_str:000000000000069b .LASF130
     /tmp/cciKveu0.s:3358   .debug_str:000000000000031d .LASF131
     /tmp/cciKveu0.s:3516   .debug_str:000000000000085e .LASF132
     /tmp/cciKveu0.s:3246   .debug_ranges:0000000000000000 .Ldebug_ranges0
     /tmp/cciKveu0.s:3254   .debug_line:0000000000000000 .Ldebug_line0
     /tmp/cciKveu0.s:3346   .debug_str:00000000000002b0 .LASF0
     /tmp/cciKveu0.s:3370   .debug_str:0000000000000397 .LASF1
     /tmp/cciKveu0.s:3436   .debug_str:0000000000000549 .LASF2
     /tmp/cciKveu0.s:3442   .debug_str:000000000000057e .LASF4
     /tmp/cciKveu0.s:3360   .debug_str:0000000000000331 .LASF3
     /tmp/cciKveu0.s:3266   .debug_str:0000000000000053 .LASF5
     /tmp/cciKveu0.s:3416   .debug_str:00000000000004cb .LASF6
     /tmp/cciKveu0.s:3412   .debug_str:00000000000004a3 .LASF7
     /tmp/cciKveu0.s:3364   .debug_str:0000000000000365 .LASF8
     /tmp/cciKveu0.s:3322   .debug_str:00000000000001d1 .LASF9
     /tmp/cciKveu0.s:3328   .debug_str:000000000000020d .LASF10
     /tmp/cciKveu0.s:3284   .debug_str:00000000000000ce .LASF11
     /tmp/cciKveu0.s:3318   .debug_str:00000000000001bd .LASF12
     /tmp/cciKveu0.s:3294   .debug_str:000000000000011b .LASF13
     /tmp/cciKveu0.s:3282   .debug_str:00000000000000be .LASF14
     /tmp/cciKveu0.s:3468   .debug_str:000000000000062f .LASF15
     /tmp/cciKveu0.s:3308   .debug_str:0000000000000170 .LASF16
     /tmp/cciKveu0.s:3458   .debug_str:00000000000005de .LASF17
     /tmp/cciKveu0.s:3472   .debug_str:0000000000000656 .LASF133
     /tmp/cciKveu0.s:3302   .debug_str:0000000000000157 .LASF38
     /tmp/cciKveu0.s:3288   .debug_str:00000000000000f0 .LASF40
     /tmp/cciKveu0.s:3444   .debug_str:0000000000000585 .LASF22
     /tmp/cciKveu0.s:3262   .debug_str:000000000000003d .LASF24
     /tmp/cciKveu0.s:3474   .debug_str:000000000000065e .LASF18
GAS LISTING /tmp/cciKveu0.s 			page 20


     /tmp/cciKveu0.s:3394   .debug_str:0000000000000436 .LASF20
     /tmp/cciKveu0.s:3324   .debug_str:00000000000001e1 .LASF19
     /tmp/cciKveu0.s:3476   .debug_str:0000000000000669 .LASF21
     /tmp/cciKveu0.s:3276   .debug_str:000000000000009c .LASF23
     /tmp/cciKveu0.s:3500   .debug_str:00000000000007d2 .LASF25
     /tmp/cciKveu0.s:3420   .debug_str:00000000000004d9 .LASF26
     /tmp/cciKveu0.s:3338   .debug_str:000000000000025e .LASF27
     /tmp/cciKveu0.s:3378   .debug_str:00000000000003cc .LASF28
     /tmp/cciKveu0.s:3508   .debug_str:000000000000081b .LASF29
     /tmp/cciKveu0.s:3466   .debug_str:0000000000000622 .LASF30
     /tmp/cciKveu0.s:3332   .debug_str:0000000000000229 .LASF31
     /tmp/cciKveu0.s:3408   .debug_str:0000000000000488 .LASF134
     /tmp/cciKveu0.s:3546   .debug_str:0000000000000919 .LASF32
     /tmp/cciKveu0.s:3354   .debug_str:00000000000002ef .LASF33
     /tmp/cciKveu0.s:3506   .debug_str:000000000000080b .LASF34
     /tmp/cciKveu0.s:3326   .debug_str:00000000000001ed .LASF35
     /tmp/cciKveu0.s:3526   .debug_str:000000000000089b .LASF36
     /tmp/cciKveu0.s:3470   .debug_str:000000000000063b .LASF37
     /tmp/cciKveu0.s:3374   .debug_str:00000000000003b3 .LASF39
     /tmp/cciKveu0.s:3488   .debug_str:0000000000000772 .LASF41
     /tmp/cciKveu0.s:3480   .debug_str:0000000000000686 .LASF135
     /tmp/cciKveu0.s:3452   .debug_str:00000000000005b5 .LASF136
     /tmp/cciKveu0.s:3430   .debug_str:000000000000052a .LASF42
     /tmp/cciKveu0.s:3348   .debug_str:00000000000002bd .LASF64
     /tmp/cciKveu0.s:3256   .debug_str:0000000000000000 .LASF43
     /tmp/cciKveu0.s:3544   .debug_str:0000000000000913 .LASF44
     /tmp/cciKveu0.s:3496   .debug_str:00000000000007b5 .LASF45
     /tmp/cciKveu0.s:3492   .debug_str:0000000000000799 .LASF46
     /tmp/cciKveu0.s:3456   .debug_str:00000000000005d5 .LASF47
     /tmp/cciKveu0.s:3404   .debug_str:0000000000000477 .LASF48
     /tmp/cciKveu0.s:3292   .debug_str:0000000000000115 .LASF49
     /tmp/cciKveu0.s:3278   .debug_str:00000000000000a8 .LASF50
     /tmp/cciKveu0.s:3502   .debug_str:00000000000007e9 .LASF52
     /tmp/cciKveu0.s:3296   .debug_str:000000000000012b .LASF51
     /tmp/cciKveu0.s:3260   .debug_str:0000000000000015 .LASF53
     /tmp/cciKveu0.s:3450   .debug_str:00000000000005a4 .LASF137
     /tmp/cciKveu0.s:3536   .debug_str:00000000000008e0 .LASF138
     /tmp/cciKveu0.s:3550   .debug_str:000000000000093b .LASF54
     /tmp/cciKveu0.s:3384   .debug_str:00000000000003f0 .LASF55
     /tmp/cciKveu0.s:3478   .debug_str:0000000000000681 .LASF56
     /tmp/cciKveu0.s:3520   .debug_str:0000000000000883 .LASF57
     /tmp/cciKveu0.s:3510   .debug_str:0000000000000834 .LASF139
     /tmp/cciKveu0.s:3312   .debug_str:000000000000018f .LASF58
     /tmp/cciKveu0.s:3482   .debug_str:000000000000068e .LASF59
     /tmp/cciKveu0.s:3298   .debug_str:0000000000000139 .LASF60
     /tmp/cciKveu0.s:3336   .debug_str:0000000000000253 .LASF61
     /tmp/cciKveu0.s:3342   .debug_str:0000000000000288 .LASF62
     /tmp/cciKveu0.s:3372   .debug_str:00000000000003aa .LASF66
     /tmp/cciKveu0.s:3498   .debug_str:00000000000007bd .LASF68
     /tmp/cciKveu0.s:3432   .debug_str:0000000000000535 .LASF63
     /tmp/cciKveu0.s:3270   .debug_str:0000000000000065 .LASF65
     /tmp/cciKveu0.s:3418   .debug_str:00000000000004d2 .LASF67
     /tmp/cciKveu0.s:3422   .debug_str:00000000000004e6 .LASF69
     /tmp/cciKveu0.s:3398   .debug_str:0000000000000455 .LASF70
     /tmp/cciKveu0.s:3366   .debug_str:0000000000000378 .LASF71
     /tmp/cciKveu0.s:3530   .debug_str:00000000000008b8 .LASF72
     /tmp/cciKveu0.s:3464   .debug_str:000000000000060e .LASF73
GAS LISTING /tmp/cciKveu0.s 			page 21


     /tmp/cciKveu0.s:3396   .debug_str:000000000000044d .LASF74
     /tmp/cciKveu0.s:3402   .debug_str:0000000000000463 .LASF75
     /tmp/cciKveu0.s:3382   .debug_str:00000000000003e8 .LASF76
     /tmp/cciKveu0.s:3424   .debug_str:00000000000004f9 .LASF77
     /tmp/cciKveu0.s:3552   .debug_str:0000000000000944 .LASF78
     /tmp/cciKveu0.s:3352   .debug_str:00000000000002db .LASF79
     /tmp/cciKveu0.s:3462   .debug_str:0000000000000607 .LASF80
     /tmp/cciKveu0.s:3446   .debug_str:000000000000058a .LASF81
     /tmp/cciKveu0.s:3448   .debug_str:000000000000059d .LASF82
     /tmp/cciKveu0.s:3286   .debug_str:00000000000000dd .LASF83
     /tmp/cciKveu0.s:3522   .debug_str:0000000000000889 .LASF84
     /tmp/cciKveu0.s:3538   .debug_str:00000000000008eb .LASF85
     /tmp/cciKveu0.s:3518   .debug_str:0000000000000879 .LASF86
     /tmp/cciKveu0.s:3388   .debug_str:0000000000000401 .LASF87
     /tmp/cciKveu0.s:3268   .debug_str:000000000000005a .LASF88
     /tmp/cciKveu0.s:3440   .debug_str:0000000000000566 .LASF89
     /tmp/cciKveu0.s:3434   .debug_str:000000000000053e .LASF90
     /tmp/cciKveu0.s:3548   .debug_str:0000000000000923 .LASF91
     /tmp/cciKveu0.s:3304   .debug_str:0000000000000160 .LASF92
     /tmp/cciKveu0.s:3340   .debug_str:0000000000000276 .LASF93
     /tmp/cciKveu0.s:3350   .debug_str:00000000000002d5 .LASF94
     /tmp/cciKveu0.s:3300   .debug_str:0000000000000145 .LASF95
     /tmp/cciKveu0.s:3528   .debug_str:00000000000008a9 .LASF96
     /tmp/cciKveu0.s:3272   .debug_str:000000000000007a .LASF97
     /tmp/cciKveu0.s:3414   .debug_str:00000000000004b6 .LASF140
     /tmp/cciKveu0.s:3362   .debug_str:0000000000000343 .LASF141
     /tmp/cciKveu0.s:3334   .debug_str:000000000000024c .LASF98
     /tmp/cciKveu0.s:3290   .debug_str:0000000000000103 .LASF142
     /tmp/cciKveu0.s:3428   .debug_str:000000000000051d .LASF143
     /tmp/cciKveu0.s:3554   .debug_str:000000000000094c .LASF99
     /tmp/cciKveu0.s:3454   .debug_str:00000000000005cd .LASF144
     /tmp/cciKveu0.s:3316   .debug_str:00000000000001ae .LASF145
     /tmp/cciKveu0.s:3542   .debug_str:000000000000090d .LASF100
     /tmp/cciKveu0.s:3376   .debug_str:00000000000003b9 .LASF101
     /tmp/cciKveu0.s:3410   .debug_str:000000000000048d .LASF102
     /tmp/cciKveu0.s:3274   .debug_str:0000000000000096 .LASF103
     /tmp/cciKveu0.s:3486   .debug_str:000000000000075f .LASF104
     /tmp/cciKveu0.s:3280   .debug_str:00000000000000b6 .LASF105
     /tmp/cciKveu0.s:3514   .debug_str:0000000000000848 .LASF106
     /tmp/cciKveu0.s:3356   .debug_str:000000000000030e .LASF107
     /tmp/cciKveu0.s:3534   .debug_str:00000000000008cf .LASF146
     /tmp/cciKveu0.s:3310   .debug_str:0000000000000186 .LASF108
     /tmp/cciKveu0.s:3344   .debug_str:00000000000002a0 .LASF147
     /tmp/cciKveu0.s:37     .text:0000000000000000 .LFB57
     /tmp/cciKveu0.s:74     .text:0000000000000034 .LFE57
     /tmp/cciKveu0.s:3504   .debug_str:0000000000000803 .LASF148
     /tmp/cciKveu0.s:3036   .debug_loc:0000000000000000 .LLST0
     /tmp/cciKveu0.s:3054   .debug_loc:000000000000004c .LLST1
     /tmp/cciKveu0.s:60     .text:0000000000000020 .LVL2
     /tmp/cciKveu0.s:3320   .debug_str:00000000000001cc .LASF109
     /tmp/cciKveu0.s:3438   .debug_str:0000000000000557 .LASF111
     /tmp/cciKveu0.s:456    .text:0000000000000238 .LFB55
     /tmp/cciKveu0.s:480    .text:0000000000000260 .LFE55
     /tmp/cciKveu0.s:3264   .debug_str:0000000000000049 .LASF110
     /tmp/cciKveu0.s:3380   .debug_str:00000000000003d9 .LASF112
     /tmp/cciKveu0.s:145    .text:000000000000008c .LFB53
     /tmp/cciKveu0.s:178    .text:00000000000000cc .LFE53
GAS LISTING /tmp/cciKveu0.s 			page 22


     /tmp/cciKveu0.s:3072   .debug_loc:0000000000000098 .LLST4
     /tmp/cciKveu0.s:162    .text:00000000000000ac .LVL10
     /tmp/cciKveu0.s:165    .text:00000000000000b8 .LVL11
     /tmp/cciKveu0.s:3532   .debug_str:00000000000008c0 .LASF113
     /tmp/cciKveu0.s:80     .text:0000000000000034 .LFB51
     /tmp/cciKveu0.s:137    .text:000000000000008c .LFE51
     /tmp/cciKveu0.s:3090   .debug_loc:00000000000000e4 .LLST2
     /tmp/cciKveu0.s:104    .text:000000000000005c .LBB15
     /tmp/cciKveu0.s:118    .text:000000000000006c .LBE15
     /tmp/cciKveu0.s:3104   .debug_loc:000000000000011d .LLST3
     /tmp/cciKveu0.s:115    .text:000000000000006c .LVL7
     /tmp/cciKveu0.s:122    .text:0000000000000078 .LVL8
     /tmp/cciKveu0.s:431    .text:000000000000021c .LFB49
     /tmp/cciKveu0.s:450    .text:0000000000000238 .LFE49
     /tmp/cciKveu0.s:400    .text:00000000000001f4 .LFB48
     /tmp/cciKveu0.s:425    .text:000000000000021c .LFE48
     /tmp/cciKveu0.s:414    .text:000000000000020c .LVL38
     /tmp/cciKveu0.s:316    .text:000000000000016c .LFB47
     /tmp/cciKveu0.s:394    .text:00000000000001f4 .LFE47
     /tmp/cciKveu0.s:3111   .debug_loc:0000000000000140 .LLST12
     /tmp/cciKveu0.s:363    .text:00000000000001ac .LBB26
     /tmp/cciKveu0.s:390    .text:00000000000001f0 .LBE26
     /tmp/cciKveu0.s:3386   .debug_str:00000000000003f5 .LASF114
     /tmp/cciKveu0.s:3133   .debug_loc:000000000000019f .LLST13
     /tmp/cciKveu0.s:368    .text:00000000000001bc .LVL32
     /tmp/cciKveu0.s:373    .text:00000000000001c8 .LVL33
     /tmp/cciKveu0.s:382    .text:00000000000001e0 .LVL36
     /tmp/cciKveu0.s:389    .text:00000000000001f0 .LVL37
     /tmp/cciKveu0.s:341    .text:0000000000000194 .LVL29
     /tmp/cciKveu0.s:3524   .debug_str:0000000000000893 .LASF115
     /tmp/cciKveu0.s:3490   .debug_str:0000000000000782 .LASF116
     /tmp/cciKveu0.s:184    .text:00000000000000cc .LFB45
     /tmp/cciKveu0.s:303    .text:000000000000016c .LFE45
     /tmp/cciKveu0.s:3144   .debug_loc:00000000000001d5 .LLST5
     /tmp/cciKveu0.s:3162   .debug_loc:0000000000000221 .LLST6
     /tmp/cciKveu0.s:3180   .debug_loc:000000000000026d .LLST7
     /tmp/cciKveu0.s:250    .text:0000000000000124 .LVL17
     /tmp/cciKveu0.s:259    .text:0000000000000138 .LVL20
     /tmp/cciKveu0.s:211    .text:0000000000000104 .LBB18
     /tmp/cciKveu0.s:280    .text:000000000000014c .LBE18
     /tmp/cciKveu0.s:3198   .debug_loc:00000000000002b9 .LLST8
     /tmp/cciKveu0.s:3205   .debug_loc:00000000000002dc .LLST9
     /tmp/cciKveu0.s:213    .text:0000000000000104 .LBB19
     /tmp/cciKveu0.s:230    .text:0000000000000110 .LBE19
     /tmp/cciKveu0.s:232    .text:0000000000000110 .LBB21
     /tmp/cciKveu0.s:244    .text:0000000000000118 .LBE21
     /tmp/cciKveu0.s:3216   .debug_loc:0000000000000312 .LLST10
     /tmp/cciKveu0.s:268    .text:0000000000000148 .LBB23
     /tmp/cciKveu0.s:279    .text:000000000000014c .LBE23
     /tmp/cciKveu0.s:3224   .debug_loc:0000000000000336 .LLST11
     /tmp/cciKveu0.s:3512   .debug_str:0000000000000843 .LASF117
     /tmp/cciKveu0.s:11     .text._ZN6Thread3runEv:0000000000000000 .LFB26
     /tmp/cciKveu0.s:30     .text._ZN6Thread3runEv:0000000000000018 .LFE26
     /tmp/cciKveu0.s:3368   .debug_str:000000000000038b .LASF149
     /tmp/cciKveu0.s:3406   .debug_str:0000000000000481 .LASF118
     /tmp/cciKveu0.s:3258   .debug_str:0000000000000005 .LASF120
     /tmp/cciKveu0.s:3400   .debug_str:000000000000045c .LASF119
GAS LISTING /tmp/cciKveu0.s 			page 23


     /tmp/cciKveu0.s:3314   .debug_str:000000000000019b .LASF121
     /tmp/cciKveu0.s:3392   .debug_str:0000000000000421 .LASF122
     /tmp/cciKveu0.s:3426   .debug_str:000000000000050d .LASF124
     /tmp/cciKveu0.s:3460   .debug_str:00000000000005f4 .LASF123
     /tmp/cciKveu0.s:3540   .debug_str:0000000000000901 .LASF125
     /tmp/cciKveu0.s:3330   .debug_str:000000000000021b .LASF126
     /tmp/cciKveu0.s:3390   .debug_str:0000000000000417 .LASF127
     /tmp/cciKveu0.s:3494   .debug_str:00000000000007a3 .LASF128
     /tmp/cciKveu0.s:3306   .debug_str:0000000000000166 .LASF129
     /tmp/cciKveu0.s:41     .text:0000000000000000 .LVL1
     /tmp/cciKveu0.s:70     .text:0000000000000030 .LVL3
     /tmp/cciKveu0.s:148    .text:000000000000008c .LVL9
     /tmp/cciKveu0.s:173    .text:00000000000000c4 .LVL12
     /tmp/cciKveu0.s:83     .text:0000000000000034 .LVL4
     /tmp/cciKveu0.s:110    .text:0000000000000060 .LVL6
     /tmp/cciKveu0.s:103    .text:000000000000005c .LVL5
     /tmp/cciKveu0.s:319    .text:000000000000016c .LVL27
     /tmp/cciKveu0.s:335    .text:0000000000000188 .LVL28
     /tmp/cciKveu0.s:355    .text:00000000000001a4 .LVL30
     /tmp/cciKveu0.s:359    .text:00000000000001ac .LVL31
     /tmp/cciKveu0.s:375    .text:00000000000001cc .LVL34
     /tmp/cciKveu0.s:380    .text:00000000000001d8 .LVL35
     /tmp/cciKveu0.s:187    .text:00000000000000cc .LVL13
     /tmp/cciKveu0.s:248    .text:000000000000011c .LVL16
     /tmp/cciKveu0.s:292    .text:000000000000015c .LVL24
     /tmp/cciKveu0.s:295    .text:0000000000000160 .LVL25
     /tmp/cciKveu0.s:298    .text:0000000000000164 .LVL26
     /tmp/cciKveu0.s:228    .text:0000000000000110 .LVL14
     /tmp/cciKveu0.s:264    .text:0000000000000140 .LVL21
     /tmp/cciKveu0.s:252    .text:0000000000000128 .LVL18
     /tmp/cciKveu0.s:257    .text:0000000000000130 .LVL19
     /tmp/cciKveu0.s:241    .text:0000000000000118 .LVL15
     /tmp/cciKveu0.s:267    .text:0000000000000148 .LVL22
     /tmp/cciKveu0.s:276    .text:000000000000014c .LVL23
     /tmp/cciKveu0.s:500    .debug_info:0000000000000000 .Ldebug_info0
     /tmp/cciKveu0.s:5      .text:0000000000000000 .Ltext0
     /tmp/cciKveu0.s:496    .text:0000000000000260 .Letext0

UNDEFINED SYMBOLS
_ZdaPv
_ZdlPv
_Z9mem_allocm
_ZN3TCB9createTCBEPFvPvES0_S0_
_Z9putThreadP3TCB
_Z11printStringPKc
_ZN3TCB13putTCBinQueueEPS_
_Z15thread_dispatchv
