GAS LISTING /tmp/ccASOZMQ.s 			page 1


   1              		.file	"tcb.cpp"
   2              		.option pic
   3              		.option norelax
   4              		.text
   5              	.Ltext0:
   6              		.align	2
   7              		.globl	_Znwm
   9              	_Znwm:
  10              	.LFB42:
  11              		.file 1 "src/tcb.cpp"
   1:src/tcb.cpp   **** //
   2:src/tcb.cpp   **** // Created by os on 8/17/22.
   3:src/tcb.cpp   **** //
   4:src/tcb.cpp   **** 
   5:src/tcb.cpp   **** #include "../h/tcb.hpp"
   6:src/tcb.cpp   **** #include "../h/scheduler.hpp"
   7:src/tcb.cpp   **** #include "../h/riscv.hpp"
   8:src/tcb.cpp   **** #include "../h/memoryAllocator.hpp"
   9:src/tcb.cpp   **** #include "../h/syscall_c.h"
  10:src/tcb.cpp   **** //
  11:src/tcb.cpp   **** //void *operator new(uint64 n) { return __mem_alloc(n); }
  12:src/tcb.cpp   **** //void *operator new[](uint64 n) { return __mem_alloc(n); }
  13:src/tcb.cpp   **** //
  14:src/tcb.cpp   **** //void operator delete(void *p) noexcept { __mem_free(p); }
  15:src/tcb.cpp   **** //void operator delete[](void *p) noexcept { __mem_free(p); }
  16:src/tcb.cpp   **** 
  17:src/tcb.cpp   **** /*
  18:src/tcb.cpp   **** 
  19:src/tcb.cpp   **** void *operator new(uint64 n) { return MemoryAllocator::getInstance()->myMalloc(n); }
  20:src/tcb.cpp   **** void *operator new[](uint64 n) { return MemoryAllocator::getInstance()->myMalloc(n); }
  21:src/tcb.cpp   **** 
  22:src/tcb.cpp   **** void operator delete(void *p) noexcept { MemoryAllocator::getInstance()->myFree(p); }
  23:src/tcb.cpp   **** void operator delete[](void *p) noexcept { MemoryAllocator::getInstance()->myFree(p); }
  24:src/tcb.cpp   **** */
  25:src/tcb.cpp   **** 
  26:src/tcb.cpp   **** void *operator new(uint64 n) { return mem_alloc(n); }
  12              		.loc 1 26 30
  13              		.cfi_startproc
  14              	.LVL0:
  15 0000 130101FF 		addi	sp,sp,-16
  16              		.cfi_def_cfa_offset 16
  17 0004 23341100 		sd	ra,8(sp)
  18 0008 23308100 		sd	s0,0(sp)
  19              		.cfi_offset 1, -8
  20              		.cfi_offset 8, -16
  21 000c 13040101 		addi	s0,sp,16
  22              		.cfi_def_cfa 8, 0
  23              		.loc 1 26 32
  24              		.loc 1 26 48 is_stmt 0
  25 0010 97000000 		call	_Z9mem_allocm@plt
  25      E7800000 
  26              	.LVL1:
  27              		.loc 1 26 53
  28 0018 83308100 		ld	ra,8(sp)
  29              		.cfi_restore 1
  30 001c 03340100 		ld	s0,0(sp)
  31              		.cfi_restore 8
GAS LISTING /tmp/ccASOZMQ.s 			page 2


  32              		.cfi_def_cfa 2, 16
  33 0020 13010101 		addi	sp,sp,16
  34              		.cfi_def_cfa_offset 0
  35 0024 67800000 		jr	ra
  36              		.cfi_endproc
  37              	.LFE42:
  39              		.align	2
  40              		.globl	_Znam
  42              	_Znam:
  43              	.LFB43:
  27:src/tcb.cpp   **** void *operator new[](uint64 n) { return mem_alloc(n); }
  44              		.loc 1 27 32 is_stmt 1
  45              		.cfi_startproc
  46              	.LVL2:
  47 0028 130101FF 		addi	sp,sp,-16
  48              		.cfi_def_cfa_offset 16
  49 002c 23341100 		sd	ra,8(sp)
  50 0030 23308100 		sd	s0,0(sp)
  51              		.cfi_offset 1, -8
  52              		.cfi_offset 8, -16
  53 0034 13040101 		addi	s0,sp,16
  54              		.cfi_def_cfa 8, 0
  55              		.loc 1 27 34
  56              		.loc 1 27 50 is_stmt 0
  57 0038 97000000 		call	_Z9mem_allocm@plt
  57      E7800000 
  58              	.LVL3:
  59              		.loc 1 27 55
  60 0040 83308100 		ld	ra,8(sp)
  61              		.cfi_restore 1
  62 0044 03340100 		ld	s0,0(sp)
  63              		.cfi_restore 8
  64              		.cfi_def_cfa 2, 16
  65 0048 13010101 		addi	sp,sp,16
  66              		.cfi_def_cfa_offset 0
  67 004c 67800000 		jr	ra
  68              		.cfi_endproc
  69              	.LFE43:
  71              		.align	2
  72              		.globl	_ZdlPv
  74              	_ZdlPv:
  75              	.LFB44:
  28:src/tcb.cpp   **** 
  29:src/tcb.cpp   **** void operator delete(void *p) noexcept { mem_free(p); }
  76              		.loc 1 29 40 is_stmt 1
  77              		.cfi_startproc
  78              		.cfi_personality 0x9b,DW.ref.__gxx_personality_v0
  79              		.cfi_lsda 0x1b,.LLSDA44
  80              	.LVL4:
  81 0050 130101FF 		addi	sp,sp,-16
  82              		.cfi_def_cfa_offset 16
  83 0054 23341100 		sd	ra,8(sp)
  84 0058 23308100 		sd	s0,0(sp)
  85              		.cfi_offset 1, -8
  86              		.cfi_offset 8, -16
  87 005c 13040101 		addi	s0,sp,16
  88              		.cfi_def_cfa 8, 0
GAS LISTING /tmp/ccASOZMQ.s 			page 3


  89              		.loc 1 29 42
  90              		.loc 1 29 50 is_stmt 0
  91 0060 97000000 		call	_Z8mem_freePv@plt
  91      E7800000 
  92              	.LVL5:
  93              		.loc 1 29 55
  94 0068 83308100 		ld	ra,8(sp)
  95              		.cfi_restore 1
  96 006c 03340100 		ld	s0,0(sp)
  97              		.cfi_restore 8
  98              		.cfi_def_cfa 2, 16
  99 0070 13010101 		addi	sp,sp,16
 100              		.cfi_def_cfa_offset 0
 101 0074 67800000 		jr	ra
 102              		.cfi_endproc
 103              	.LFE44:
 104              		.globl	__gxx_personality_v0
 105              		.section	.gcc_except_table,"a",@progbits
 106              	.LLSDA44:
 107 0000 FF       		.byte	0xff
 108 0001 FF       		.byte	0xff
 109 0002 03       		.byte	0x3
 110 0003 00       		.byte	0
 111              		.text
 113              		.align	2
 114              		.globl	_ZdaPv
 116              	_ZdaPv:
 117              	.LFB45:
  30:src/tcb.cpp   **** void operator delete[](void *p) noexcept { mem_free(p); }
 118              		.loc 1 30 42 is_stmt 1
 119              		.cfi_startproc
 120              		.cfi_personality 0x9b,DW.ref.__gxx_personality_v0
 121              		.cfi_lsda 0x1b,.LLSDA45
 122              	.LVL6:
 123 0078 130101FF 		addi	sp,sp,-16
 124              		.cfi_def_cfa_offset 16
 125 007c 23341100 		sd	ra,8(sp)
 126 0080 23308100 		sd	s0,0(sp)
 127              		.cfi_offset 1, -8
 128              		.cfi_offset 8, -16
 129 0084 13040101 		addi	s0,sp,16
 130              		.cfi_def_cfa 8, 0
 131              		.loc 1 30 44
 132              		.loc 1 30 52 is_stmt 0
 133 0088 97000000 		call	_Z8mem_freePv@plt
 133      E7800000 
 134              	.LVL7:
 135              		.loc 1 30 57
 136 0090 83308100 		ld	ra,8(sp)
 137              		.cfi_restore 1
 138 0094 03340100 		ld	s0,0(sp)
 139              		.cfi_restore 8
 140              		.cfi_def_cfa 2, 16
 141 0098 13010101 		addi	sp,sp,16
 142              		.cfi_def_cfa_offset 0
 143 009c 67800000 		jr	ra
 144              		.cfi_endproc
GAS LISTING /tmp/ccASOZMQ.s 			page 4


 145              	.LFE45:
 146              		.section	.gcc_except_table
 147              	.LLSDA45:
 148 0004 FF       		.byte	0xff
 149 0005 FF       		.byte	0xff
 150 0006 03       		.byte	0x3
 151 0007 00       		.byte	0
 152              		.text
 154              		.align	2
 155              		.globl	_ZN3TCB15createFromStartEPFvPvE
 157              	_ZN3TCB15createFromStartEPFvPvE:
 158              	.LFB46:
  31:src/tcb.cpp   **** 
  32:src/tcb.cpp   **** 
  33:src/tcb.cpp   **** TCB *TCB::running = nullptr;
  34:src/tcb.cpp   **** 
  35:src/tcb.cpp   **** 
  36:src/tcb.cpp   **** uint64 TCB::timeSliceCounter = 0;
  37:src/tcb.cpp   **** 
  38:src/tcb.cpp   **** 
  39:src/tcb.cpp   **** TCB *TCB::createFromStart(TCB::Body body) {
 159              		.loc 1 39 43 is_stmt 1
 160              		.cfi_startproc
 161              	.LVL8:
 162 00a0 130101FE 		addi	sp,sp,-32
 163              		.cfi_def_cfa_offset 32
 164 00a4 233C1100 		sd	ra,24(sp)
 165 00a8 23388100 		sd	s0,16(sp)
 166 00ac 23349100 		sd	s1,8(sp)
 167 00b0 23302101 		sd	s2,0(sp)
 168              		.cfi_offset 1, -8
 169              		.cfi_offset 8, -16
 170              		.cfi_offset 9, -24
 171              		.cfi_offset 18, -32
 172 00b4 13040102 		addi	s0,sp,32
 173              		.cfi_def_cfa 8, 0
 174 00b8 13090500 		mv	s2,a0
  40:src/tcb.cpp   ****     void *stack_space = MemoryAllocator::getInstance()->myMalloc(DEFAULT_STACK_SIZE*sizeof(uint64))
 175              		.loc 1 40 5
 176              	.LBB34:
 177              	.LBB35:
 178              		.file 2 "src/../h/../h/memoryAllocator.hpp"
   1:src/../h/../h/memoryAllocator.hpp **** //
   2:src/../h/../h/memoryAllocator.hpp **** // Created by os on 8/14/22.
   3:src/../h/../h/memoryAllocator.hpp **** //
   4:src/../h/../h/memoryAllocator.hpp **** 
   5:src/../h/../h/memoryAllocator.hpp **** #ifndef PROBA3_PROJECT_BASE_MEMORYALLOCATOR_HPP
   6:src/../h/../h/memoryAllocator.hpp **** #define PROBA3_PROJECT_BASE_MEMORYALLOCATOR_HPP
   7:src/../h/../h/memoryAllocator.hpp **** 
   8:src/../h/../h/memoryAllocator.hpp **** #include "../lib/hw.h"
   9:src/../h/../h/memoryAllocator.hpp **** 
  10:src/../h/../h/memoryAllocator.hpp **** class MemoryAllocator {
  11:src/../h/../h/memoryAllocator.hpp **** private:
  12:src/../h/../h/memoryAllocator.hpp **** 
  13:src/../h/../h/memoryAllocator.hpp ****     int countSizeBytes(int blockNum){
  14:src/../h/../h/memoryAllocator.hpp ****         return blockNum * MEM_BLOCK_SIZE;
  15:src/../h/../h/memoryAllocator.hpp ****     }
GAS LISTING /tmp/ccASOZMQ.s 			page 5


  16:src/../h/../h/memoryAllocator.hpp **** 
  17:src/../h/../h/memoryAllocator.hpp ****     MemoryAllocator() {
  18:src/../h/../h/memoryAllocator.hpp ****         freeList=(struct metaData*)HEAP_START_ADDR;
  19:src/../h/../h/memoryAllocator.hpp ****         // ```` Pocetni size je velicina pocetnog memorijskog prostora
  20:src/../h/../h/memoryAllocator.hpp ****         freeList->size = ((char *)HEAP_END_ADDR - (char *)HEAP_START_ADDR) - sizeof(struct metaData
  21:src/../h/../h/memoryAllocator.hpp ****         freeList->free = 1;
  22:src/../h/../h/memoryAllocator.hpp ****         freeList->next = 0;
  23:src/../h/../h/memoryAllocator.hpp ****     }
  24:src/../h/../h/memoryAllocator.hpp **** 
  25:src/../h/../h/memoryAllocator.hpp ****     struct metaData{
  26:src/../h/../h/memoryAllocator.hpp ****         size_t size;
  27:src/../h/../h/memoryAllocator.hpp ****         int free;
  28:src/../h/../h/memoryAllocator.hpp ****         struct metaData *next;
  29:src/../h/../h/memoryAllocator.hpp ****     } ;
  30:src/../h/../h/memoryAllocator.hpp **** 
  31:src/../h/../h/memoryAllocator.hpp ****     struct metaData* freeList;
  32:src/../h/../h/memoryAllocator.hpp **** 
  33:src/../h/../h/memoryAllocator.hpp ****     void split(struct metaData *fitting_slot,size_t size);
  34:src/../h/../h/memoryAllocator.hpp **** 
  35:src/../h/../h/memoryAllocator.hpp **** public:
  36:src/../h/../h/memoryAllocator.hpp ****     static MemoryAllocator* getInstance(){
  37:src/../h/../h/memoryAllocator.hpp ****         // using static variable
  38:src/../h/../h/memoryAllocator.hpp ****         static MemoryAllocator instance;
 179              		.loc 2 38 9
 180              		.loc 2 38 32 is_stmt 0
 181 00bc 97070000 		lbu	a5,_ZGVZN15MemoryAllocator11getInstanceEvE8instance
 181      83C70700 
 182 00c4 63960704 		bnez	a5,.L10
 183              	.LVL9:
 184              	.LBB36:
 185              	.LBB37:
 186              	.LBB38:
  18:src/../h/../h/memoryAllocator.hpp ****         // ```` Pocetni size je velicina pocetnog memorijskog prostora
 187              		.loc 2 18 9 is_stmt 1
  18:src/../h/../h/memoryAllocator.hpp ****         // ```` Pocetni size je velicina pocetnog memorijskog prostora
 188              		.loc 2 18 17 is_stmt 0
 189 00c8 97070000 		la	a5,HEAP_START_ADDR
 189      83B70700 
 190 00d0 03B70700 		ld	a4,0(a5)
 191 00d4 97060000 		lla	a3,_ZZN15MemoryAllocator11getInstanceEvE8instance
 191      93860600 
 192 00dc 23B0E600 		sd	a4,0(a3)
  20:src/../h/../h/memoryAllocator.hpp ****         freeList->free = 1;
 193              		.loc 2 20 9 is_stmt 1
  20:src/../h/../h/memoryAllocator.hpp ****         freeList->free = 1;
 194              		.loc 2 20 27 is_stmt 0
 195 00e0 97070000 		la	a5,HEAP_END_ADDR
 195      83B70700 
 196 00e8 83B70700 		ld	a5,0(a5)
  20:src/../h/../h/memoryAllocator.hpp ****         freeList->free = 1;
 197              		.loc 2 20 49
 198 00ec B387E740 		sub	a5,a5,a4
  20:src/../h/../h/memoryAllocator.hpp ****         freeList->free = 1;
 199              		.loc 2 20 76
 200 00f0 938787FE 		addi	a5,a5,-24
  20:src/../h/../h/memoryAllocator.hpp ****         freeList->free = 1;
 201              		.loc 2 20 24
GAS LISTING /tmp/ccASOZMQ.s 			page 6


 202 00f4 2330F700 		sd	a5,0(a4)
  21:src/../h/../h/memoryAllocator.hpp ****         freeList->next = 0;
 203              		.loc 2 21 9 is_stmt 1
 204 00f8 03B70600 		ld	a4,0(a3)
  21:src/../h/../h/memoryAllocator.hpp ****         freeList->next = 0;
 205              		.loc 2 21 24 is_stmt 0
 206 00fc 93071000 		li	a5,1
 207 0100 2324F700 		sw	a5,8(a4)
  22:src/../h/../h/memoryAllocator.hpp ****     }
 208              		.loc 2 22 9 is_stmt 1
  22:src/../h/../h/memoryAllocator.hpp ****     }
 209              		.loc 2 22 24 is_stmt 0
 210 0104 23380700 		sd	zero,16(a4)
 211              	.LVL10:
 212              	.LBE38:
 213              	.LBE37:
 214              	.LBE36:
 215              		.loc 2 38 32
 216 0108 17070000 		sb	a5,_ZGVZN15MemoryAllocator11getInstanceEvE8instance,a4
 216      2300F700 
 217              	.L10:
  39:src/../h/../h/memoryAllocator.hpp ****         return &instance;
 218              		.loc 2 39 9 is_stmt 1
 219              	.LBE35:
 220              	.LBE34:
 221              		.loc 1 40 65 is_stmt 0
 222 0110 B7850000 		li	a1,32768
 223 0114 17050000 		lla	a0,_ZZN15MemoryAllocator11getInstanceEvE8instance
 223      13050500 
 224              	.LVL11:
 225 011c 97000000 		call	_ZN15MemoryAllocator8myMallocEm@plt
 225      E7800000 
 226              	.LVL12:
 227 0124 93040500 		mv	s1,a0
 228              	.LVL13:
  41:src/tcb.cpp   ****     void *arg = nullptr;
 229              		.loc 1 41 5 is_stmt 1
  42:src/tcb.cpp   ****     TCB* ret = new TCB(body, TIME_SLICE, arg, stack_space);
 230              		.loc 1 42 5
 231              		.loc 1 42 58 is_stmt 0
 232 0128 13058003 		li	a0,56
 233 012c 97000000 		call	_Znwm
 233      E7800000 
 234              	.LVL14:
 235              	.LBB39:
 236              	.LBB40:
 237              		.file 3 "src/../h/tcb.hpp"
   1:src/../h/tcb.hpp **** //
   2:src/../h/tcb.hpp **** // Created by os on 8/17/22.
   3:src/../h/tcb.hpp **** //
   4:src/../h/tcb.hpp **** 
   5:src/../h/tcb.hpp **** #ifndef PROBA3_PROJECT_BASE_TCB_HPP
   6:src/../h/tcb.hpp **** #define PROBA3_PROJECT_BASE_TCB_HPP
   7:src/../h/tcb.hpp **** 
   8:src/../h/tcb.hpp **** #include "../lib/hw.h"
   9:src/../h/tcb.hpp **** #include "../h/scheduler.hpp"
  10:src/../h/tcb.hpp **** #include "../h/memoryAllocator.hpp"
GAS LISTING /tmp/ccASOZMQ.s 			page 7


  11:src/../h/tcb.hpp **** #include "../lib/mem.h"
  12:src/../h/tcb.hpp **** 
  13:src/../h/tcb.hpp **** 
  14:src/../h/tcb.hpp **** 
  15:src/../h/tcb.hpp **** #define THREADS_NUM 64
  16:src/../h/tcb.hpp **** 
  17:src/../h/tcb.hpp **** //  IZLASKOM IZ F-JA WOKRERA NITI SE IMPLICINTNO ZAVRSAVAJU
  18:src/../h/tcb.hpp **** 
  19:src/../h/tcb.hpp **** extern void printString(char const *string);
  20:src/../h/tcb.hpp **** 
  21:src/../h/tcb.hpp **** 
  22:src/../h/tcb.hpp **** void *operator new(uint64 n);
  23:src/../h/tcb.hpp **** void *operator new[](uint64 n);
  24:src/../h/tcb.hpp **** 
  25:src/../h/tcb.hpp **** typedef TCB* thread_t;
  26:src/../h/tcb.hpp **** 
  27:src/../h/tcb.hpp **** class TCB {
  28:src/../h/tcb.hpp **** public:
  29:src/../h/tcb.hpp **** 
  30:src/../h/tcb.hpp **** 
  31:src/../h/tcb.hpp **** 
  32:src/../h/tcb.hpp ****     static void dispatch();
  33:src/../h/tcb.hpp **** 
  34:src/../h/tcb.hpp ****     ~TCB() { delete[] stack;
  35:src/../h/tcb.hpp ****       //  printString("\nDestructor is executed\n");
  36:src/../h/tcb.hpp ****     }
  37:src/../h/tcb.hpp **** 
  38:src/../h/tcb.hpp ****     bool isFinished() const { return finished; }
  39:src/../h/tcb.hpp **** 
  40:src/../h/tcb.hpp ****     bool isSuspended() const { return suspended; }
  41:src/../h/tcb.hpp **** 
  42:src/../h/tcb.hpp ****     void setFinished(bool value) { finished = value; }
  43:src/../h/tcb.hpp **** 
  44:src/../h/tcb.hpp ****     void setSuspended(bool value) { suspended = value; }
  45:src/../h/tcb.hpp **** 
  46:src/../h/tcb.hpp ****     uint64 getTimeSlice() const { return timeSlice; }
  47:src/../h/tcb.hpp **** 
  48:src/../h/tcb.hpp ****     // using Body = void (*)();
  49:src/../h/tcb.hpp ****     using Body = void (*)(void *);
  50:src/../h/tcb.hpp **** 
  51:src/../h/tcb.hpp ****     static TCB *createThread(Body body, void *arg, void* stack_space);
  52:src/../h/tcb.hpp **** 
  53:src/../h/tcb.hpp ****     static TCB *createTCB(Body body, void *arg, void* stack_space);
  54:src/../h/tcb.hpp **** 
  55:src/../h/tcb.hpp ****     static TCB *createFromStart(Body body);
  56:src/../h/tcb.hpp **** 
  57:src/../h/tcb.hpp ****     void putTCBinQueue(TCB *tcb);
  58:src/../h/tcb.hpp **** 
  59:src/../h/tcb.hpp ****     static void yield();
  60:src/../h/tcb.hpp **** 
  61:src/../h/tcb.hpp ****     static TCB *running;
  62:src/../h/tcb.hpp **** 
  63:src/../h/tcb.hpp **** private:
  64:src/../h/tcb.hpp ****    // TCB(Body body, uint64 timeSlice);
  65:src/../h/tcb.hpp ****      TCB(Body body, uint64 timeSlice, void *arg, void* stack_space) :
  66:src/../h/tcb.hpp ****         body(body)
 238              		.loc 3 66 18
GAS LISTING /tmp/ccASOZMQ.s 			page 8


 239 0134 23342501 		sd	s2,8(a0)
  67:src/../h/tcb.hpp ****     {
  68:src/../h/tcb.hpp ****        this->arg = arg;
 240              		.loc 3 68 8 is_stmt 1
 241              		.loc 3 68 18 is_stmt 0
 242 0138 23300500 		sd	zero,0(a0)
  69:src/../h/tcb.hpp ****        // UMESTO new uint64[STACK_SIZE] -> (uint64*)MemoryAllocator::getInstance()->myMalloc(STACK_
  70:src/../h/tcb.hpp ****        //stack = body != nullptr ? new uint64[STACK_SIZE] : nullptr;
  71:src/../h/tcb.hpp **** 
  72:src/../h/tcb.hpp ****        //stack = body != nullptr ? (uint64*)__mem_alloc(STACK_SIZE) : nullptr;
  73:src/../h/tcb.hpp ****        stack = body != nullptr ? (uint64*)stack_space : nullptr;
 243              		.loc 3 73 8 is_stmt 1
 244              		.loc 3 73 32 is_stmt 0
 245 013c 63060904 		beqz	s2,.L15
 246              		.loc 3 73 14
 247 0140 23389500 		sd	s1,16(a0)
  74:src/../h/tcb.hpp **** 
  75:src/../h/tcb.hpp ****         //******* new?
  76:src/../h/tcb.hpp **** 
  77:src/../h/tcb.hpp ****         context = {(uint64) &threadWrapper, stack != nullptr ? (uint64) &stack[DEFAULT_STACK_SIZE] 
 248              		.loc 3 77 9 is_stmt 1
 249              		.loc 3 77 62 is_stmt 0
 250 0144 63880404 		beqz	s1,.L13
 251              		.loc 3 77 73
 252 0148 B7870000 		li	a5,32768
 253 014c B384F400 		add	s1,s1,a5
 254              	.LVL15:
 255              	.L12:
 256              		.loc 3 77 17
 257 0150 97070000 		lla	a5,_ZN3TCB13threadWrapperEPv
 257      93870700 
 258 0158 233CF500 		sd	a5,24(a0)
 259 015c 23309502 		sd	s1,32(a0)
  78:src/../h/tcb.hpp **** 
  79:src/../h/tcb.hpp ****         this->timeSlice = DEFAULT_TIME_SLICE;
 260              		.loc 3 79 9 is_stmt 1
 261              		.loc 3 79 25 is_stmt 0
 262 0160 93072000 		li	a5,2
 263 0164 2334F502 		sd	a5,40(a0)
  80:src/../h/tcb.hpp ****         finished = false;
 264              		.loc 3 80 9 is_stmt 1
 265              		.loc 3 80 18 is_stmt 0
 266 0168 23080502 		sb	zero,48(a0)
  81:src/../h/tcb.hpp ****         suspended = false;
 267              		.loc 3 81 9 is_stmt 1
 268              		.loc 3 81 19 is_stmt 0
 269 016c A3080502 		sb	zero,49(a0)
 270              	.LVL16:
 271              	.LBE40:
 272              	.LBE39:
  43:src/tcb.cpp   ****     return ret;
 273              		.loc 1 43 5 is_stmt 1
  44:src/tcb.cpp   **** }
 274              		.loc 1 44 1 is_stmt 0
 275 0170 83308101 		ld	ra,24(sp)
 276              		.cfi_remember_state
 277              		.cfi_restore 1
GAS LISTING /tmp/ccASOZMQ.s 			page 9


 278 0174 03340101 		ld	s0,16(sp)
 279              		.cfi_restore 8
 280              		.cfi_def_cfa 2, 32
 281 0178 83348100 		ld	s1,8(sp)
 282              		.cfi_restore 9
 283 017c 03390100 		ld	s2,0(sp)
 284              		.cfi_restore 18
 285              	.LVL17:
 286 0180 13010102 		addi	sp,sp,32
 287              		.cfi_def_cfa_offset 0
 288 0184 67800000 		jr	ra
 289              	.LVL18:
 290              	.L15:
 291              		.cfi_restore_state
 292              	.LBB42:
 293              	.LBB41:
  73:src/../h/tcb.hpp **** 
 294              		.loc 3 73 14
 295 0188 23380500 		sd	zero,16(a0)
  77:src/../h/tcb.hpp **** 
 296              		.loc 3 77 9 is_stmt 1
  77:src/../h/tcb.hpp **** 
 297              		.loc 3 77 62 is_stmt 0
 298 018c 93040000 		li	s1,0
 299              	.LVL19:
 300 0190 6FF01FFC 		j	.L12
 301              	.LVL20:
 302              	.L13:
 303 0194 93040000 		li	s1,0
 304              	.LVL21:
 305 0198 6FF09FFB 		j	.L12
 306              	.LBE41:
 307              	.LBE42:
 308              		.cfi_endproc
 309              	.LFE46:
 311              		.align	2
 312              		.globl	_ZN3TCB9createTCBEPFvPvES0_S0_
 314              	_ZN3TCB9createTCBEPFvPvES0_S0_:
 315              	.LFB47:
  45:src/tcb.cpp   **** 
  46:src/tcb.cpp   **** TCB *TCB::createTCB(TCB::Body body, void *arg, void *stack_space) {
 316              		.loc 1 46 67 is_stmt 1
 317              		.cfi_startproc
 318              	.LVL22:
 319 019c 130101FD 		addi	sp,sp,-48
 320              		.cfi_def_cfa_offset 48
 321 01a0 23341102 		sd	ra,40(sp)
 322 01a4 23308102 		sd	s0,32(sp)
 323 01a8 233C9100 		sd	s1,24(sp)
 324 01ac 23382101 		sd	s2,16(sp)
 325 01b0 23343101 		sd	s3,8(sp)
 326              		.cfi_offset 1, -8
 327              		.cfi_offset 8, -16
 328              		.cfi_offset 9, -24
 329              		.cfi_offset 18, -32
 330              		.cfi_offset 19, -40
 331 01b4 13040103 		addi	s0,sp,48
GAS LISTING /tmp/ccASOZMQ.s 			page 10


 332              		.cfi_def_cfa 8, 0
 333 01b8 13090500 		mv	s2,a0
 334 01bc 93890500 		mv	s3,a1
 335 01c0 93040600 		mv	s1,a2
  47:src/tcb.cpp   ****     TCB* ret = new TCB(body, TIME_SLICE, arg, stack_space);
 336              		.loc 1 47 5
 337              		.loc 1 47 58 is_stmt 0
 338 01c4 13058003 		li	a0,56
 339              	.LVL23:
 340 01c8 97000000 		call	_Znwm
 340      E7800000 
 341              	.LVL24:
 342              	.LBB43:
 343              	.LBB44:
  66:src/../h/tcb.hpp ****     {
 344              		.loc 3 66 18
 345 01d0 23342501 		sd	s2,8(a0)
  68:src/../h/tcb.hpp ****        // UMESTO new uint64[STACK_SIZE] -> (uint64*)MemoryAllocator::getInstance()->myMalloc(STACK_
 346              		.loc 3 68 8 is_stmt 1
  68:src/../h/tcb.hpp ****        // UMESTO new uint64[STACK_SIZE] -> (uint64*)MemoryAllocator::getInstance()->myMalloc(STACK_
 347              		.loc 3 68 18 is_stmt 0
 348 01d4 23303501 		sd	s3,0(a0)
  73:src/../h/tcb.hpp **** 
 349              		.loc 3 73 8 is_stmt 1
  73:src/../h/tcb.hpp **** 
 350              		.loc 3 73 32 is_stmt 0
 351 01d8 63080904 		beqz	s2,.L21
  73:src/../h/tcb.hpp **** 
 352              		.loc 3 73 14
 353 01dc 23389500 		sd	s1,16(a0)
  77:src/../h/tcb.hpp **** 
 354              		.loc 3 77 9 is_stmt 1
  77:src/../h/tcb.hpp **** 
 355              		.loc 3 77 62 is_stmt 0
 356 01e0 638A0404 		beqz	s1,.L19
  77:src/../h/tcb.hpp **** 
 357              		.loc 3 77 73
 358 01e4 37860000 		li	a2,32768
 359 01e8 B384C400 		add	s1,s1,a2
 360              	.LVL25:
 361              	.L18:
  77:src/../h/tcb.hpp **** 
 362              		.loc 3 77 17
 363 01ec 97070000 		lla	a5,_ZN3TCB13threadWrapperEPv
 363      93870700 
 364 01f4 233CF500 		sd	a5,24(a0)
 365 01f8 23309502 		sd	s1,32(a0)
  79:src/../h/tcb.hpp ****         finished = false;
 366              		.loc 3 79 9 is_stmt 1
  79:src/../h/tcb.hpp ****         finished = false;
 367              		.loc 3 79 25 is_stmt 0
 368 01fc 93072000 		li	a5,2
 369 0200 2334F502 		sd	a5,40(a0)
  80:src/../h/tcb.hpp ****         suspended = false;
 370              		.loc 3 80 9 is_stmt 1
  80:src/../h/tcb.hpp ****         suspended = false;
 371              		.loc 3 80 18 is_stmt 0
GAS LISTING /tmp/ccASOZMQ.s 			page 11


 372 0204 23080502 		sb	zero,48(a0)
 373              		.loc 3 81 9 is_stmt 1
 374              		.loc 3 81 19 is_stmt 0
 375 0208 A3080502 		sb	zero,49(a0)
 376              	.LVL26:
 377              	.LBE44:
 378              	.LBE43:
  48:src/tcb.cpp   ****     return ret;
 379              		.loc 1 48 5 is_stmt 1
  49:src/tcb.cpp   **** }
 380              		.loc 1 49 1 is_stmt 0
 381 020c 83308102 		ld	ra,40(sp)
 382              		.cfi_remember_state
 383              		.cfi_restore 1
 384 0210 03340102 		ld	s0,32(sp)
 385              		.cfi_restore 8
 386              		.cfi_def_cfa 2, 48
 387 0214 83348101 		ld	s1,24(sp)
 388              		.cfi_restore 9
 389 0218 03390101 		ld	s2,16(sp)
 390              		.cfi_restore 18
 391              	.LVL27:
 392 021c 83398100 		ld	s3,8(sp)
 393              		.cfi_restore 19
 394              	.LVL28:
 395 0220 13010103 		addi	sp,sp,48
 396              		.cfi_def_cfa_offset 0
 397 0224 67800000 		jr	ra
 398              	.LVL29:
 399              	.L21:
 400              		.cfi_restore_state
 401              	.LBB46:
 402              	.LBB45:
  73:src/../h/tcb.hpp **** 
 403              		.loc 3 73 14
 404 0228 23380500 		sd	zero,16(a0)
  77:src/../h/tcb.hpp **** 
 405              		.loc 3 77 9 is_stmt 1
  77:src/../h/tcb.hpp **** 
 406              		.loc 3 77 62 is_stmt 0
 407 022c 93040000 		li	s1,0
 408              	.LVL30:
 409 0230 6FF0DFFB 		j	.L18
 410              	.LVL31:
 411              	.L19:
 412 0234 93040000 		li	s1,0
 413              	.LVL32:
 414 0238 6FF05FFB 		j	.L18
 415              	.LBE45:
 416              	.LBE46:
 417              		.cfi_endproc
 418              	.LFE47:
 420              		.align	2
 421              		.globl	_ZN3TCB13putTCBinQueueEPS_
 423              	_ZN3TCB13putTCBinQueueEPS_:
 424              	.LFB48:
  50:src/tcb.cpp   **** 
GAS LISTING /tmp/ccASOZMQ.s 			page 12


  51:src/tcb.cpp   **** void TCB::putTCBinQueue(TCB *tcb) {
 425              		.loc 1 51 35 is_stmt 1
 426              		.cfi_startproc
 427              	.LVL33:
  52:src/tcb.cpp   ****     tcb->putInQueue(tcb);
 428              		.loc 1 52 5
 429              	.LBB47:
 430              	.LBB48:
  82:src/../h/tcb.hpp ****        // if (body != nullptr) { Scheduler::put(this); }
  83:src/../h/tcb.hpp ****     }
  84:src/../h/tcb.hpp **** 
  85:src/../h/tcb.hpp **** 
  86:src/../h/tcb.hpp ****     void putInQueue(TCB *tcb){
  87:src/../h/tcb.hpp ****         if (body != nullptr) { Scheduler::put(this); }
 431              		.loc 3 87 9
 432              		.loc 3 87 13 is_stmt 0
 433 023c 83B78500 		ld	a5,8(a1)
 434              		.loc 3 87 9
 435 0240 63880702 		beqz	a5,.L25
 436              	.LBE48:
 437              	.LBE47:
  51:src/tcb.cpp   ****     tcb->putInQueue(tcb);
 438              		.loc 1 51 35
 439 0244 130101FF 		addi	sp,sp,-16
 440              		.cfi_def_cfa_offset 16
 441 0248 23341100 		sd	ra,8(sp)
 442 024c 23308100 		sd	s0,0(sp)
 443              		.cfi_offset 1, -8
 444              		.cfi_offset 8, -16
 445 0250 13040101 		addi	s0,sp,16
 446              		.cfi_def_cfa 8, 0
 447 0254 13850500 		mv	a0,a1
 448              	.LVL34:
 449              	.LBB50:
 450              	.LBB49:
 451              		.loc 3 87 32 is_stmt 1
 452              		.loc 3 87 46 is_stmt 0
 453 0258 97000000 		call	_ZN9Scheduler3putEP3TCB@plt
 453      E7800000 
 454              	.LVL35:
 455              	.LBE49:
 456              	.LBE50:
  53:src/tcb.cpp   **** }
 457              		.loc 1 53 1
 458 0260 83308100 		ld	ra,8(sp)
 459              		.cfi_restore 1
 460 0264 03340100 		ld	s0,0(sp)
 461              		.cfi_restore 8
 462              		.cfi_def_cfa 2, 16
 463 0268 13010101 		addi	sp,sp,16
 464              		.cfi_def_cfa_offset 0
 465 026c 67800000 		jr	ra
 466              	.LVL36:
 467              	.L25:
 468 0270 67800000 		ret
 469              		.cfi_endproc
 470              	.LFE48:
GAS LISTING /tmp/ccASOZMQ.s 			page 13


 472              		.align	2
 473              		.globl	_ZN3TCB12createThreadEPFvPvES0_S0_
 475              	_ZN3TCB12createThreadEPFvPvES0_S0_:
 476              	.LFB49:
  54:src/tcb.cpp   **** 
  55:src/tcb.cpp   **** TCB *TCB::createThread(Body body, void *arg, void* stack_space) {
 477              		.loc 1 55 65 is_stmt 1
 478              		.cfi_startproc
 479              	.LVL37:
 480 0274 130101FD 		addi	sp,sp,-48
 481              		.cfi_def_cfa_offset 48
 482 0278 23341102 		sd	ra,40(sp)
 483 027c 23308102 		sd	s0,32(sp)
 484 0280 233C9100 		sd	s1,24(sp)
 485 0284 23382101 		sd	s2,16(sp)
 486 0288 23343101 		sd	s3,8(sp)
 487 028c 23304101 		sd	s4,0(sp)
 488              		.cfi_offset 1, -8
 489              		.cfi_offset 8, -16
 490              		.cfi_offset 9, -24
 491              		.cfi_offset 18, -32
 492              		.cfi_offset 19, -40
 493              		.cfi_offset 20, -48
 494 0290 13040103 		addi	s0,sp,48
 495              		.cfi_def_cfa 8, 0
 496 0294 93090500 		mv	s3,a0
 497 0298 138A0500 		mv	s4,a1
 498 029c 13090600 		mv	s2,a2
  56:src/tcb.cpp   **** //    return (TCB*)MemoryAllocator::getInstance()->myMalloc(sizeof)
  57:src/tcb.cpp   ****     TCB* ret = new TCB(body, TIME_SLICE, arg, stack_space);
 499              		.loc 1 57 5
 500              		.loc 1 57 58 is_stmt 0
 501 02a0 13058003 		li	a0,56
 502              	.LVL38:
 503 02a4 97000000 		call	_Znwm
 503      E7800000 
 504              	.LVL39:
 505 02ac 93040500 		mv	s1,a0
 506              	.LVL40:
 507              	.LBB51:
 508              	.LBB52:
  66:src/../h/tcb.hpp ****     {
 509              		.loc 3 66 18
 510 02b0 23343501 		sd	s3,8(a0)
  68:src/../h/tcb.hpp ****        // UMESTO new uint64[STACK_SIZE] -> (uint64*)MemoryAllocator::getInstance()->myMalloc(STACK_
 511              		.loc 3 68 8 is_stmt 1
  68:src/../h/tcb.hpp ****        // UMESTO new uint64[STACK_SIZE] -> (uint64*)MemoryAllocator::getInstance()->myMalloc(STACK_
 512              		.loc 3 68 18 is_stmt 0
 513 02b4 23304501 		sd	s4,0(a0)
  73:src/../h/tcb.hpp **** 
 514              		.loc 3 73 8 is_stmt 1
  73:src/../h/tcb.hpp **** 
 515              		.loc 3 73 32 is_stmt 0
 516 02b8 63840906 		beqz	s3,.L34
  73:src/../h/tcb.hpp **** 
 517              		.loc 3 73 14
 518 02bc 23382501 		sd	s2,16(a0)
GAS LISTING /tmp/ccASOZMQ.s 			page 14


  77:src/../h/tcb.hpp **** 
 519              		.loc 3 77 9 is_stmt 1
  77:src/../h/tcb.hpp **** 
 520              		.loc 3 77 62 is_stmt 0
 521 02c0 63060906 		beqz	s2,.L32
  77:src/../h/tcb.hpp **** 
 522              		.loc 3 77 73
 523 02c4 37860000 		li	a2,32768
 524 02c8 3309C900 		add	s2,s2,a2
 525              	.LVL41:
 526              	.L30:
  77:src/../h/tcb.hpp **** 
 527              		.loc 3 77 17
 528 02cc 97070000 		lla	a5,_ZN3TCB13threadWrapperEPv
 528      93870700 
 529 02d4 23BCF400 		sd	a5,24(s1)
 530 02d8 23B02403 		sd	s2,32(s1)
  79:src/../h/tcb.hpp ****         finished = false;
 531              		.loc 3 79 9 is_stmt 1
  79:src/../h/tcb.hpp ****         finished = false;
 532              		.loc 3 79 25 is_stmt 0
 533 02dc 93072000 		li	a5,2
 534 02e0 23B4F402 		sd	a5,40(s1)
  80:src/../h/tcb.hpp ****         suspended = false;
 535              		.loc 3 80 9 is_stmt 1
  80:src/../h/tcb.hpp ****         suspended = false;
 536              		.loc 3 80 18 is_stmt 0
 537 02e4 23880402 		sb	zero,48(s1)
  81:src/../h/tcb.hpp ****        // if (body != nullptr) { Scheduler::put(this); }
 538              		.loc 3 81 9 is_stmt 1
  81:src/../h/tcb.hpp ****        // if (body != nullptr) { Scheduler::put(this); }
 539              		.loc 3 81 19 is_stmt 0
 540 02e8 A3880402 		sb	zero,49(s1)
 541              	.LVL42:
 542              	.LBE52:
 543              	.LBE51:
  58:src/tcb.cpp   ****     ret->putInQueue(ret);
 544              		.loc 1 58 5 is_stmt 1
 545              	.LBB54:
 546              	.LBB55:
 547              		.loc 3 87 9
 548 02ec 63880900 		beqz	s3,.L28
 549              		.loc 3 87 32
 550              		.loc 3 87 46 is_stmt 0
 551 02f0 13850400 		mv	a0,s1
 552 02f4 97000000 		call	_ZN9Scheduler3putEP3TCB@plt
 552      E7800000 
 553              	.LVL43:
 554              	.LBE55:
 555              	.LBE54:
  59:src/tcb.cpp   ****     return ret;
 556              		.loc 1 59 5 is_stmt 1
 557              	.L28:
  60:src/tcb.cpp   **** }
 558              		.loc 1 60 1 is_stmt 0
 559 02fc 13850400 		mv	a0,s1
 560 0300 83308102 		ld	ra,40(sp)
GAS LISTING /tmp/ccASOZMQ.s 			page 15


 561              		.cfi_remember_state
 562              		.cfi_restore 1
 563 0304 03340102 		ld	s0,32(sp)
 564              		.cfi_restore 8
 565              		.cfi_def_cfa 2, 48
 566 0308 83348101 		ld	s1,24(sp)
 567              		.cfi_restore 9
 568              	.LVL44:
 569 030c 03390101 		ld	s2,16(sp)
 570              		.cfi_restore 18
 571 0310 83398100 		ld	s3,8(sp)
 572              		.cfi_restore 19
 573              	.LVL45:
 574 0314 033A0100 		ld	s4,0(sp)
 575              		.cfi_restore 20
 576              	.LVL46:
 577 0318 13010103 		addi	sp,sp,48
 578              		.cfi_def_cfa_offset 0
 579 031c 67800000 		jr	ra
 580              	.LVL47:
 581              	.L34:
 582              		.cfi_restore_state
 583              	.LBB56:
 584              	.LBB53:
  73:src/../h/tcb.hpp **** 
 585              		.loc 3 73 14
 586 0320 23380500 		sd	zero,16(a0)
  77:src/../h/tcb.hpp **** 
 587              		.loc 3 77 9 is_stmt 1
  77:src/../h/tcb.hpp **** 
 588              		.loc 3 77 62 is_stmt 0
 589 0324 13090000 		li	s2,0
 590              	.LVL48:
 591 0328 6FF05FFA 		j	.L30
 592              	.LVL49:
 593              	.L32:
 594 032c 13090000 		li	s2,0
 595              	.LVL50:
 596 0330 6FF0DFF9 		j	.L30
 597              	.LBE53:
 598              	.LBE56:
 599              		.cfi_endproc
 600              	.LFE49:
 602              		.align	2
 603              		.globl	_ZN3TCB5yieldEv
 605              	_ZN3TCB5yieldEv:
 606              	.LFB50:
  61:src/tcb.cpp   **** 
  62:src/tcb.cpp   **** void TCB::yield() { __asm__ volatile ("ecall"); }
 607              		.loc 1 62 19 is_stmt 1
 608              		.cfi_startproc
 609 0334 130101FF 		addi	sp,sp,-16
 610              		.cfi_def_cfa_offset 16
 611 0338 23348100 		sd	s0,8(sp)
 612              		.cfi_offset 8, -8
 613 033c 13040101 		addi	s0,sp,16
 614              		.cfi_def_cfa 8, 0
GAS LISTING /tmp/ccASOZMQ.s 			page 16


 615              		.loc 1 62 21
 616              		.loc 1 62 47 is_stmt 0
 617              	#APP
 618              	# 62 "src/tcb.cpp" 1
  63              	
  62:src/tcb.cpp   **** void TCB::yield() { __asm__ volatile ("ecall"); }
 619              		ecall
 620              	# 0 "" 2
 621              		.loc 1 62 49
 622              	#NO_APP
 623 0344 03348100 		ld	s0,8(sp)
 624              		.cfi_restore 8
 625              		.cfi_def_cfa 2, 16
 626 0348 13010101 		addi	sp,sp,16
 627              		.cfi_def_cfa_offset 0
 628 034c 67800000 		jr	ra
 629              		.cfi_endproc
 630              	.LFE50:
 632              		.align	2
 633              		.globl	_ZN3TCB13threadWrapperEPv
 635              	_ZN3TCB13threadWrapperEPv:
 636              	.LFB52:
  64:src/tcb.cpp   **** void TCB::dispatch() {
  65:src/tcb.cpp   ****     TCB *old = running;
  66:src/tcb.cpp   ****    // TCB::Context oldContext  = {old->context.ra, old->context.sp};
  67:src/tcb.cpp   ****    //TCB::Context oldCont = old->context; // mozda treba da bude globalna var
  68:src/tcb.cpp   ****     if (!old->isFinished() && !old->isSuspended()) { Scheduler::put(old); }
  69:src/tcb.cpp   ****     else if(old->isFinished()) {
  70:src/tcb.cpp   ****         // delete?
  71:src/tcb.cpp   ****         delete old;
  72:src/tcb.cpp   ****     }
  73:src/tcb.cpp   ****     running = Scheduler::get();
  74:src/tcb.cpp   **** 
  75:src/tcb.cpp   ****     TCB::contextSwitch(&old->context, &running->context);
  76:src/tcb.cpp   **** }
  77:src/tcb.cpp   **** 
  78:src/tcb.cpp   **** void TCB::threadWrapper(void *arg) {
 637              		.loc 1 78 36 is_stmt 1
 638              		.cfi_startproc
 639              	.LVL51:
 640 0350 130101FE 		addi	sp,sp,-32
 641              		.cfi_def_cfa_offset 32
 642 0354 233C1100 		sd	ra,24(sp)
 643 0358 23388100 		sd	s0,16(sp)
 644 035c 23349100 		sd	s1,8(sp)
 645 0360 23302101 		sd	s2,0(sp)
 646              		.cfi_offset 1, -8
 647              		.cfi_offset 8, -16
 648              		.cfi_offset 9, -24
 649              		.cfi_offset 18, -32
 650 0364 13040102 		addi	s0,sp,32
 651              		.cfi_def_cfa 8, 0
 652 0368 93040500 		mv	s1,a0
  79:src/tcb.cpp   ****     // Mozda ovde treba ubaciti run, vrv ne
  80:src/tcb.cpp   ****     // Ovo clear-uje SPP registar (SPP = 0 -> korisnicki rezim)
  81:src/tcb.cpp   ****     //Riscv::mc_sstatus(Riscv::SSTATUS_SPP);
  82:src/tcb.cpp   ****     Riscv::popSppSpie();
GAS LISTING /tmp/ccASOZMQ.s 			page 17


 653              		.loc 1 82 5
 654              		.loc 1 82 22 is_stmt 0
 655 036c 97000000 		call	_ZN5Riscv10popSppSpieEv@plt
 655      E7800000 
 656              	.LVL52:
  83:src/tcb.cpp   ****     running->body(arg);
 657              		.loc 1 83 5 is_stmt 1
 658              		.loc 1 83 14 is_stmt 0
 659 0374 17090000 		lla	s2,.LANCHOR0
 659      13090900 
 660 037c 83370900 		ld	a5,0(s2)
 661 0380 83B78700 		ld	a5,8(a5)
 662              		.loc 1 83 18
 663 0384 13850400 		mv	a0,s1
 664 0388 E7800700 		jalr	a5
 665              	.LVL53:
  84:src/tcb.cpp   ****     running->setFinished(true);
 666              		.loc 1 84 5 is_stmt 1
 667              		.loc 1 84 25 is_stmt 0
 668 038c 83370900 		ld	a5,0(s2)
 669              	.LVL54:
 670              	.LBB57:
 671              	.LBB58:
  42:src/../h/tcb.hpp **** 
 672              		.loc 3 42 36 is_stmt 1
  42:src/../h/tcb.hpp **** 
 673              		.loc 3 42 45 is_stmt 0
 674 0390 13071000 		li	a4,1
 675 0394 2388E702 		sb	a4,48(a5)
 676              	.LVL55:
 677              	.LBE58:
 678              	.LBE57:
  85:src/tcb.cpp   ****     TCB::yield();
 679              		.loc 1 85 5 is_stmt 1
 680              		.loc 1 85 15 is_stmt 0
 681 0398 97000000 		call	_ZN3TCB5yieldEv
 681      E7800000 
 682              	.LVL56:
  86:src/tcb.cpp   **** }
 683              		.loc 1 86 1
 684 03a0 83308101 		ld	ra,24(sp)
 685              		.cfi_restore 1
 686 03a4 03340101 		ld	s0,16(sp)
 687              		.cfi_restore 8
 688              		.cfi_def_cfa 2, 32
 689 03a8 83348100 		ld	s1,8(sp)
 690              		.cfi_restore 9
 691              	.LVL57:
 692 03ac 03390100 		ld	s2,0(sp)
 693              		.cfi_restore 18
 694 03b0 13010102 		addi	sp,sp,32
 695              		.cfi_def_cfa_offset 0
 696 03b4 67800000 		jr	ra
 697              		.cfi_endproc
 698              	.LFE52:
 700              		.align	2
 701              		.globl	_ZN3TCB8dispatchEv
GAS LISTING /tmp/ccASOZMQ.s 			page 18


 703              	_ZN3TCB8dispatchEv:
 704              	.LFB51:
  64:src/tcb.cpp   ****     TCB *old = running;
 705              		.loc 1 64 22 is_stmt 1
 706              		.cfi_startproc
 707 03b8 130101FE 		addi	sp,sp,-32
 708              		.cfi_def_cfa_offset 32
 709 03bc 233C1100 		sd	ra,24(sp)
 710 03c0 23388100 		sd	s0,16(sp)
 711 03c4 23349100 		sd	s1,8(sp)
 712              		.cfi_offset 1, -8
 713              		.cfi_offset 8, -16
 714              		.cfi_offset 9, -24
 715 03c8 13040102 		addi	s0,sp,32
 716              		.cfi_def_cfa 8, 0
  65:src/tcb.cpp   ****    // TCB::Context oldContext  = {old->context.ra, old->context.sp};
 717              		.loc 1 65 5
  65:src/tcb.cpp   ****    // TCB::Context oldContext  = {old->context.ra, old->context.sp};
 718              		.loc 1 65 10 is_stmt 0
 719 03cc 97040000 		ld	s1,.LANCHOR0
 719      83B40400 
 720              	.LVL58:
  68:src/tcb.cpp   ****     else if(old->isFinished()) {
 721              		.loc 1 68 5 is_stmt 1
 722              	.LBB59:
 723              	.LBB60:
  38:src/../h/tcb.hpp **** 
 724              		.loc 3 38 31
  38:src/../h/tcb.hpp **** 
 725              		.loc 3 38 38 is_stmt 0
 726 03d4 83C70403 		lbu	a5,48(s1)
 727              	.LVL59:
 728              	.LBE60:
 729              	.LBE59:
  68:src/tcb.cpp   ****     else if(old->isFinished()) {
 730              		.loc 1 68 28
 731 03d8 63960700 		bnez	a5,.L40
 732              	.LVL60:
 733              	.LBB61:
 734              	.LBB62:
  40:src/../h/tcb.hpp **** 
 735              		.loc 3 40 32 is_stmt 1
  40:src/../h/tcb.hpp **** 
 736              		.loc 3 40 39 is_stmt 0
 737 03dc 03C71403 		lbu	a4,49(s1)
 738              	.LVL61:
 739              	.LBE62:
 740              	.LBE61:
  68:src/tcb.cpp   ****     else if(old->isFinished()) {
 741              		.loc 1 68 28
 742 03e0 630E0704 		beqz	a4,.L44
 743              	.L40:
  69:src/tcb.cpp   ****         // delete?
 744              		.loc 1 69 10 is_stmt 1 discriminator 4
 745              	.LVL62:
  38:src/../h/tcb.hpp **** 
 746              		.loc 3 38 31 discriminator 4
GAS LISTING /tmp/ccASOZMQ.s 			page 19


  69:src/tcb.cpp   ****         // delete?
 747              		.loc 1 69 10 is_stmt 0 discriminator 4
 748 03e4 63820702 		beqz	a5,.L41
  71:src/tcb.cpp   ****     }
 749              		.loc 1 71 9 is_stmt 1
  71:src/tcb.cpp   ****     }
 750              		.loc 1 71 19 is_stmt 0
 751 03e8 63800402 		beqz	s1,.L41
 752              	.LVL63:
 753              	.LBB63:
 754              	.LBB64:
  34:src/../h/tcb.hpp ****       //  printString("\nDestructor is executed\n");
 755              		.loc 3 34 14 is_stmt 1
  34:src/../h/tcb.hpp ****       //  printString("\nDestructor is executed\n");
 756              		.loc 3 34 23 is_stmt 0
 757 03ec 03B50401 		ld	a0,16(s1)
  34:src/../h/tcb.hpp ****       //  printString("\nDestructor is executed\n");
 758              		.loc 3 34 28
 759 03f0 63060500 		beqz	a0,.L42
  34:src/../h/tcb.hpp ****       //  printString("\nDestructor is executed\n");
 760              		.loc 3 34 23
 761 03f4 97000000 		call	_ZdaPv
 761      E7800000 
 762              	.LVL64:
 763              	.L42:
 764              	.LBE64:
 765              	.LBE63:
  71:src/tcb.cpp   ****     }
 766              		.loc 1 71 16
 767 03fc 13850400 		mv	a0,s1
 768 0400 97000000 		call	_ZdlPv
 768      E7800000 
 769              	.LVL65:
 770              	.L41:
  73:src/tcb.cpp   **** 
 771              		.loc 1 73 5 is_stmt 1
  73:src/tcb.cpp   **** 
 772              		.loc 1 73 29 is_stmt 0
 773 0408 97000000 		call	_ZN9Scheduler3getEv@plt
 773      E7800000 
 774              	.LVL66:
  73:src/tcb.cpp   **** 
 775              		.loc 1 73 13
 776 0410 97070000 		sd	a0,.LANCHOR0,a5
 776      23B0A700 
  75:src/tcb.cpp   **** }
 777              		.loc 1 75 5 is_stmt 1
  75:src/tcb.cpp   **** }
 778              		.loc 1 75 23 is_stmt 0
 779 0418 93058501 		addi	a1,a0,24
 780 041c 13858401 		addi	a0,s1,24
 781 0420 97000000 		call	_ZN3TCB13contextSwitchEPNS_7ContextES1_@plt
 781      E7800000 
 782              	.LVL67:
  76:src/tcb.cpp   **** 
 783              		.loc 1 76 1
 784 0428 83308101 		ld	ra,24(sp)
GAS LISTING /tmp/ccASOZMQ.s 			page 20


 785              		.cfi_remember_state
 786              		.cfi_restore 1
 787 042c 03340101 		ld	s0,16(sp)
 788              		.cfi_restore 8
 789              		.cfi_def_cfa 2, 32
 790 0430 83348100 		ld	s1,8(sp)
 791              		.cfi_restore 9
 792              	.LVL68:
 793 0434 13010102 		addi	sp,sp,32
 794              		.cfi_def_cfa_offset 0
 795 0438 67800000 		jr	ra
 796              	.LVL69:
 797              	.L44:
 798              		.cfi_restore_state
  68:src/tcb.cpp   ****     else if(old->isFinished()) {
 799              		.loc 1 68 54 is_stmt 1
  68:src/tcb.cpp   ****     else if(old->isFinished()) {
 800              		.loc 1 68 68 is_stmt 0
 801 043c 13850400 		mv	a0,s1
 802 0440 97000000 		call	_ZN9Scheduler3putEP3TCB@plt
 802      E7800000 
 803              	.LVL70:
 804 0448 6FF01FFC 		j	.L41
 805              		.cfi_endproc
 806              	.LFE51:
 808              		.globl	_ZN3TCB16timeSliceCounterE
 809              		.globl	_ZN3TCB7runningE
 810              		.weak	_ZGVZN15MemoryAllocator11getInstanceEvE8instance
 811              		.section	.bss._ZGVZN15MemoryAllocator11getInstanceEvE8instance,"awG",@nobits,_ZGVZN15MemoryAllocat
 812              		.align	3
 815              	_ZGVZN15MemoryAllocator11getInstanceEvE8instance:
 816 0000 00000000 		.zero	8
 816      00000000 
 817              		.weak	_ZZN15MemoryAllocator11getInstanceEvE8instance
 818              		.section	.bss._ZZN15MemoryAllocator11getInstanceEvE8instance,"awG",@nobits,_ZZN15MemoryAllocator11
 819              		.align	3
 822              	_ZZN15MemoryAllocator11getInstanceEvE8instance:
 823 0000 00000000 		.zero	8
 823      00000000 
 824              		.bss
 825              		.align	3
 826              		.set	.LANCHOR0,. + 0
 829              	_ZN3TCB7runningE:
 830 0000 00000000 		.zero	8
 830      00000000 
 833              	_ZN3TCB16timeSliceCounterE:
 834 0008 00000000 		.zero	8
 834      00000000 
 835              		.text
 836              	.Letext0:
 837              		.file 4 "src/../h/../lib/hw.h"
 838              		.file 5 "src/../h/../h/scheduler.hpp"
 839              		.file 6 "src/../h/../h/list.hpp"
 840              		.file 7 "src/../h/riscv.hpp"
 841              		.file 8 "src/../h/syscall_c.h"
 4962              		.align	3
 4965              	DW.ref.__gxx_personality_v0:
GAS LISTING /tmp/ccASOZMQ.s 			page 21


 4966 0000 00000000 		.dword	__gxx_personality_v0
 4966      00000000 
 4967              		.ident	"GCC: (Ubuntu 9.4.0-1ubuntu1~20.04) 9.4.0"
 4968              		.section	.note.GNU-stack,"",@progbits
GAS LISTING /tmp/ccASOZMQ.s 			page 22

