GAS LISTING /tmp/ccXYaIow.s 			page 1


   1              		.file	"userMain.cpp"
   2              		.option pic
   3              		.option norelax
   4              		.text
   5              	.Ltext0:
   6              		.section	.rodata.str1.8,"aMS",@progbits,1
   7              		.align	3
   8              	.LC0:
   9 0000 413A2069 		.string	"A: i="
   9      3D00
  10 0006 0000     		.align	3
  11              	.LC1:
  12 0008 0A00     		.string	"\n"
  13 000a 00000000 		.align	3
  13      0000
  14              	.LC2:
  15 0010 41206669 		.string	"A finished!\n"
  15      6E697368 
  15      6564210A 
  15      00
  16              		.text
  17              		.align	2
  18              		.globl	_Z11workerBodyAPv
  20              	_Z11workerBodyAPv:
  21              	.LFB27:
  22              		.file 1 "src/Threads_C_API_test.hpp"
   1:src/Threads_C_API_test.hpp **** #ifndef XV6_THREADS_C_API_TEST_HPP
   2:src/Threads_C_API_test.hpp **** #define XV6_THREADS_C_API_TEST_HPP
   3:src/Threads_C_API_test.hpp **** 
   4:src/Threads_C_API_test.hpp **** #include "../h/syscall_c.h"
   5:src/Threads_C_API_test.hpp **** 
   6:src/Threads_C_API_test.hpp **** #include "printing.hpp"
   7:src/Threads_C_API_test.hpp **** bool finishedA = false;
   8:src/Threads_C_API_test.hpp **** bool finishedB = false;
   9:src/Threads_C_API_test.hpp **** bool finishedC = false;
  10:src/Threads_C_API_test.hpp **** bool finishedD = false;
  11:src/Threads_C_API_test.hpp **** 
  12:src/Threads_C_API_test.hpp **** uint64 fibonacci(uint64 n) {
  13:src/Threads_C_API_test.hpp ****     if (n == 0 || n == 1) { return n; }
  14:src/Threads_C_API_test.hpp ****     if (n % 10 == 0) { thread_dispatch(); }
  15:src/Threads_C_API_test.hpp ****     return fibonacci(n - 1) + fibonacci(n - 2);
  16:src/Threads_C_API_test.hpp **** }
  17:src/Threads_C_API_test.hpp **** 
  18:src/Threads_C_API_test.hpp **** void workerBodyA(void* arg) {
  23              		.loc 1 18 29
  24              		.cfi_startproc
  25              	.LVL0:
  26 0000 130101FE 		addi	sp,sp,-32
  27              		.cfi_def_cfa_offset 32
  28 0004 233C1100 		sd	ra,24(sp)
  29 0008 23388100 		sd	s0,16(sp)
  30 000c 23349100 		sd	s1,8(sp)
  31 0010 23302101 		sd	s2,0(sp)
  32              		.cfi_offset 1, -8
  33              		.cfi_offset 8, -16
  34              		.cfi_offset 9, -24
  35              		.cfi_offset 18, -32
GAS LISTING /tmp/ccXYaIow.s 			page 2


  36 0014 13040102 		addi	s0,sp,32
  37              		.cfi_def_cfa 8, 0
  19:src/Threads_C_API_test.hpp ****     for (uint64 i = 0; i < 10; i++) {
  38              		.loc 1 19 5
  39              	.LVL1:
  40              	.LBB2:
  41              		.loc 1 19 17 is_stmt 0
  42 0018 13090000 		li	s2,0
  43 001c 6F008003 		j	.L7
  44              	.LVL2:
  45              	.L4:
  46              	.LBB3:
  47              	.LBB4:
  48              	.LBB5:
  20:src/Threads_C_API_test.hpp ****         printString("A: i="); printInt(i); printString("\n");
  21:src/Threads_C_API_test.hpp ****         for (uint64 j = 0; j < 10000; j++) {
  22:src/Threads_C_API_test.hpp ****             for (uint64 k = 0; k < 30000; k++) {  /*busy wait*/  }
  23:src/Threads_C_API_test.hpp ****             thread_dispatch();
  49              		.loc 1 23 13 is_stmt 1 discriminator 2
  50              		.loc 1 23 28 is_stmt 0 discriminator 2
  51 0020 97000000 		call	_Z15thread_dispatchv@plt
  51      E7800000 
  52              	.LVL3:
  53              	.LBE5:
  21:src/Threads_C_API_test.hpp ****             for (uint64 k = 0; k < 30000; k++) {  /*busy wait*/  }
  54              		.loc 1 21 9 is_stmt 1 discriminator 2
  55 0028 93841400 		addi	s1,s1,1
  56              	.LVL4:
  57              	.L6:
  21:src/Threads_C_API_test.hpp ****             for (uint64 k = 0; k < 30000; k++) {  /*busy wait*/  }
  58              		.loc 1 21 30 discriminator 1
  59 002c B7270000 		li	a5,8192
  60 0030 9387F770 		addi	a5,a5,1807
  61 0034 63EE9700 		bgtu	s1,a5,.L3
  62              	.LBB7:
  63              	.LBB6:
  22:src/Threads_C_API_test.hpp ****             thread_dispatch();
  64              		.loc 1 22 25 is_stmt 0
  65 0038 13070000 		li	a4,0
  66              	.L5:
  67              	.LVL5:
  22:src/Threads_C_API_test.hpp ****             thread_dispatch();
  68              		.loc 1 22 34 is_stmt 1 discriminator 3
  69 003c B7770000 		li	a5,28672
  70 0040 9387F752 		addi	a5,a5,1327
  71 0044 E3EEE7FC 		bgtu	a4,a5,.L4
  22:src/Threads_C_API_test.hpp ****             thread_dispatch();
  72              		.loc 1 22 13 discriminator 2
  73 0048 13071700 		addi	a4,a4,1
  74              	.LVL6:
  75 004c 6FF01FFF 		j	.L5
  76              	.LVL7:
  77              	.L3:
  78              	.LBE6:
  79              	.LBE7:
  80              	.LBE4:
  81              	.LBE3:
GAS LISTING /tmp/ccXYaIow.s 			page 3


  19:src/Threads_C_API_test.hpp ****         printString("A: i="); printInt(i); printString("\n");
  82              		.loc 1 19 5 discriminator 2
  83 0050 13091900 		addi	s2,s2,1
  84              	.LVL8:
  85              	.L7:
  19:src/Threads_C_API_test.hpp ****         printString("A: i="); printInt(i); printString("\n");
  86              		.loc 1 19 26 discriminator 1
  87 0054 93079000 		li	a5,9
  88 0058 63E02705 		bgtu	s2,a5,.L2
  89              	.LBB9:
  20:src/Threads_C_API_test.hpp ****         for (uint64 j = 0; j < 10000; j++) {
  90              		.loc 1 20 9
  20:src/Threads_C_API_test.hpp ****         for (uint64 j = 0; j < 10000; j++) {
  91              		.loc 1 20 20 is_stmt 0
  92 005c 17050000 		lla	a0,.LC0
  92      13050500 
  93 0064 97000000 		call	_Z11printStringPKc@plt
  93      E7800000 
  94              	.LVL9:
  20:src/Threads_C_API_test.hpp ****         for (uint64 j = 0; j < 10000; j++) {
  95              		.loc 1 20 31 is_stmt 1
  20:src/Threads_C_API_test.hpp ****         for (uint64 j = 0; j < 10000; j++) {
  96              		.loc 1 20 39 is_stmt 0
  97 006c 13060000 		li	a2,0
  98 0070 9305A000 		li	a1,10
  99 0074 1B050900 		sext.w	a0,s2
 100 0078 97000000 		call	_Z8printIntiii@plt
 100      E7800000 
 101              	.LVL10:
  20:src/Threads_C_API_test.hpp ****         for (uint64 j = 0; j < 10000; j++) {
 102              		.loc 1 20 44 is_stmt 1
  20:src/Threads_C_API_test.hpp ****         for (uint64 j = 0; j < 10000; j++) {
 103              		.loc 1 20 55 is_stmt 0
 104 0080 17050000 		lla	a0,.LC1
 104      13050500 
 105 0088 97000000 		call	_Z11printStringPKc@plt
 105      E7800000 
 106              	.LVL11:
  21:src/Threads_C_API_test.hpp ****             for (uint64 k = 0; k < 30000; k++) {  /*busy wait*/  }
 107              		.loc 1 21 9 is_stmt 1
 108              	.LBB8:
  21:src/Threads_C_API_test.hpp ****             for (uint64 k = 0; k < 30000; k++) {  /*busy wait*/  }
 109              		.loc 1 21 21 is_stmt 0
 110 0090 93040000 		li	s1,0
 111 0094 6FF09FF9 		j	.L6
 112              	.LVL12:
 113              	.L2:
 114              	.LBE8:
 115              	.LBE9:
 116              	.LBE2:
  24:src/Threads_C_API_test.hpp ****         }
  25:src/Threads_C_API_test.hpp ****     }
  26:src/Threads_C_API_test.hpp ****     printString("A finished!\n");
 117              		.loc 1 26 5 is_stmt 1
 118              		.loc 1 26 16 is_stmt 0
 119 0098 17050000 		lla	a0,.LC2
 119      13050500 
GAS LISTING /tmp/ccXYaIow.s 			page 4


 120 00a0 97000000 		call	_Z11printStringPKc@plt
 120      E7800000 
 121              	.LVL13:
  27:src/Threads_C_API_test.hpp ****     finishedA = true;
 122              		.loc 1 27 5 is_stmt 1
 123              		.loc 1 27 15 is_stmt 0
 124 00a8 93071000 		li	a5,1
 125 00ac 17070000 		sb	a5,.LANCHOR0,a4
 125      2300F700 
  28:src/Threads_C_API_test.hpp **** }
 126              		.loc 1 28 1
 127 00b4 83308101 		ld	ra,24(sp)
 128              		.cfi_restore 1
 129 00b8 03340101 		ld	s0,16(sp)
 130              		.cfi_restore 8
 131              		.cfi_def_cfa 2, 32
 132 00bc 83348100 		ld	s1,8(sp)
 133              		.cfi_restore 9
 134 00c0 03390100 		ld	s2,0(sp)
 135              		.cfi_restore 18
 136              	.LVL14:
 137 00c4 13010102 		addi	sp,sp,32
 138              		.cfi_def_cfa_offset 0
 139 00c8 67800000 		jr	ra
 140              		.cfi_endproc
 141              	.LFE27:
 143              		.section	.rodata.str1.8
 144 001d 000000   		.align	3
 145              	.LC3:
 146 0020 423A2069 		.string	"B: i="
 146      3D00
 147 0026 0000     		.align	3
 148              	.LC4:
 149 0028 42206669 		.string	"B finished!\n"
 149      6E697368 
 149      6564210A 
 149      00
 150              		.text
 151              		.align	2
 152              		.globl	_Z11workerBodyBPv
 154              	_Z11workerBodyBPv:
 155              	.LFB28:
  29:src/Threads_C_API_test.hpp **** 
  30:src/Threads_C_API_test.hpp **** void workerBodyB(void* arg) {
 156              		.loc 1 30 29 is_stmt 1
 157              		.cfi_startproc
 158              	.LVL15:
 159 00cc 130101FE 		addi	sp,sp,-32
 160              		.cfi_def_cfa_offset 32
 161 00d0 233C1100 		sd	ra,24(sp)
 162 00d4 23388100 		sd	s0,16(sp)
 163 00d8 23349100 		sd	s1,8(sp)
 164 00dc 23302101 		sd	s2,0(sp)
 165              		.cfi_offset 1, -8
 166              		.cfi_offset 8, -16
 167              		.cfi_offset 9, -24
 168              		.cfi_offset 18, -32
GAS LISTING /tmp/ccXYaIow.s 			page 5


 169 00e0 13040102 		addi	s0,sp,32
 170              		.cfi_def_cfa 8, 0
  31:src/Threads_C_API_test.hpp ****     for (uint64 i = 0; i < 16; i++) {
 171              		.loc 1 31 5
 172              	.LVL16:
 173              	.LBB10:
 174              		.loc 1 31 17 is_stmt 0
 175 00e4 13090000 		li	s2,0
 176 00e8 6F008003 		j	.L15
 177              	.LVL17:
 178              	.L12:
 179              	.LBB11:
 180              	.LBB12:
 181              	.LBB13:
  32:src/Threads_C_API_test.hpp ****         printString("B: i="); printInt(i); printString("\n");
  33:src/Threads_C_API_test.hpp ****         for (uint64 j = 0; j < 10000; j++) {
  34:src/Threads_C_API_test.hpp ****             for (uint64 k = 0; k < 30000; k++) {  /*busy wait*/  }
  35:src/Threads_C_API_test.hpp ****             thread_dispatch();
 182              		.loc 1 35 13 is_stmt 1 discriminator 2
 183              		.loc 1 35 28 is_stmt 0 discriminator 2
 184 00ec 97000000 		call	_Z15thread_dispatchv@plt
 184      E7800000 
 185              	.LVL18:
 186              	.LBE13:
  33:src/Threads_C_API_test.hpp ****             for (uint64 k = 0; k < 30000; k++) {  /*busy wait*/  }
 187              		.loc 1 33 9 is_stmt 1 discriminator 2
 188 00f4 93841400 		addi	s1,s1,1
 189              	.LVL19:
 190              	.L14:
  33:src/Threads_C_API_test.hpp ****             for (uint64 k = 0; k < 30000; k++) {  /*busy wait*/  }
 191              		.loc 1 33 30 discriminator 1
 192 00f8 B7270000 		li	a5,8192
 193 00fc 9387F770 		addi	a5,a5,1807
 194 0100 63EE9700 		bgtu	s1,a5,.L11
 195              	.LBB15:
 196              	.LBB14:
  34:src/Threads_C_API_test.hpp ****             thread_dispatch();
 197              		.loc 1 34 25 is_stmt 0
 198 0104 13070000 		li	a4,0
 199              	.L13:
 200              	.LVL20:
  34:src/Threads_C_API_test.hpp ****             thread_dispatch();
 201              		.loc 1 34 34 is_stmt 1 discriminator 3
 202 0108 B7770000 		li	a5,28672
 203 010c 9387F752 		addi	a5,a5,1327
 204 0110 E3EEE7FC 		bgtu	a4,a5,.L12
  34:src/Threads_C_API_test.hpp ****             thread_dispatch();
 205              		.loc 1 34 13 discriminator 2
 206 0114 13071700 		addi	a4,a4,1
 207              	.LVL21:
 208 0118 6FF01FFF 		j	.L13
 209              	.LVL22:
 210              	.L11:
 211              	.LBE14:
 212              	.LBE15:
 213              	.LBE12:
 214              	.LBE11:
GAS LISTING /tmp/ccXYaIow.s 			page 6


  31:src/Threads_C_API_test.hpp ****         printString("B: i="); printInt(i); printString("\n");
 215              		.loc 1 31 5 discriminator 2
 216 011c 13091900 		addi	s2,s2,1
 217              	.LVL23:
 218              	.L15:
  31:src/Threads_C_API_test.hpp ****         printString("B: i="); printInt(i); printString("\n");
 219              		.loc 1 31 26 discriminator 1
 220 0120 9307F000 		li	a5,15
 221 0124 63E02705 		bgtu	s2,a5,.L10
 222              	.LBB17:
  32:src/Threads_C_API_test.hpp ****         for (uint64 j = 0; j < 10000; j++) {
 223              		.loc 1 32 9
  32:src/Threads_C_API_test.hpp ****         for (uint64 j = 0; j < 10000; j++) {
 224              		.loc 1 32 20 is_stmt 0
 225 0128 17050000 		lla	a0,.LC3
 225      13050500 
 226 0130 97000000 		call	_Z11printStringPKc@plt
 226      E7800000 
 227              	.LVL24:
  32:src/Threads_C_API_test.hpp ****         for (uint64 j = 0; j < 10000; j++) {
 228              		.loc 1 32 31 is_stmt 1
  32:src/Threads_C_API_test.hpp ****         for (uint64 j = 0; j < 10000; j++) {
 229              		.loc 1 32 39 is_stmt 0
 230 0138 13060000 		li	a2,0
 231 013c 9305A000 		li	a1,10
 232 0140 1B050900 		sext.w	a0,s2
 233 0144 97000000 		call	_Z8printIntiii@plt
 233      E7800000 
 234              	.LVL25:
  32:src/Threads_C_API_test.hpp ****         for (uint64 j = 0; j < 10000; j++) {
 235              		.loc 1 32 44 is_stmt 1
  32:src/Threads_C_API_test.hpp ****         for (uint64 j = 0; j < 10000; j++) {
 236              		.loc 1 32 55 is_stmt 0
 237 014c 17050000 		lla	a0,.LC1
 237      13050500 
 238 0154 97000000 		call	_Z11printStringPKc@plt
 238      E7800000 
 239              	.LVL26:
  33:src/Threads_C_API_test.hpp ****             for (uint64 k = 0; k < 30000; k++) {  /*busy wait*/  }
 240              		.loc 1 33 9 is_stmt 1
 241              	.LBB16:
  33:src/Threads_C_API_test.hpp ****             for (uint64 k = 0; k < 30000; k++) {  /*busy wait*/  }
 242              		.loc 1 33 21 is_stmt 0
 243 015c 93040000 		li	s1,0
 244 0160 6FF09FF9 		j	.L14
 245              	.LVL27:
 246              	.L10:
 247              	.LBE16:
 248              	.LBE17:
 249              	.LBE10:
  36:src/Threads_C_API_test.hpp ****         }
  37:src/Threads_C_API_test.hpp ****     }
  38:src/Threads_C_API_test.hpp ****     printString("B finished!\n");
 250              		.loc 1 38 5 is_stmt 1
 251              		.loc 1 38 16 is_stmt 0
 252 0164 17050000 		lla	a0,.LC4
 252      13050500 
GAS LISTING /tmp/ccXYaIow.s 			page 7


 253 016c 97000000 		call	_Z11printStringPKc@plt
 253      E7800000 
 254              	.LVL28:
  39:src/Threads_C_API_test.hpp ****     finishedB = true;
 255              		.loc 1 39 5 is_stmt 1
 256              		.loc 1 39 15 is_stmt 0
 257 0174 93071000 		li	a5,1
 258 0178 17070000 		sb	a5,.LANCHOR0+1,a4
 258      2300F700 
  40:src/Threads_C_API_test.hpp ****     thread_dispatch();
 259              		.loc 1 40 5 is_stmt 1
 260              		.loc 1 40 20 is_stmt 0
 261 0180 97000000 		call	_Z15thread_dispatchv@plt
 261      E7800000 
 262              	.LVL29:
  41:src/Threads_C_API_test.hpp **** }
 263              		.loc 1 41 1
 264 0188 83308101 		ld	ra,24(sp)
 265              		.cfi_restore 1
 266 018c 03340101 		ld	s0,16(sp)
 267              		.cfi_restore 8
 268              		.cfi_def_cfa 2, 32
 269 0190 83348100 		ld	s1,8(sp)
 270              		.cfi_restore 9
 271 0194 03390100 		ld	s2,0(sp)
 272              		.cfi_restore 18
 273              	.LVL30:
 274 0198 13010102 		addi	sp,sp,32
 275              		.cfi_def_cfa_offset 0
 276 019c 67800000 		jr	ra
 277              		.cfi_endproc
 278              	.LFE28:
 280              		.align	2
 281              		.globl	_Z16producerKeyboardPv
 283              	_Z16producerKeyboardPv:
 284              	.LFB32:
 285              		.file 2 "src/ConsumerProducer_C_API_test.h"
   1:src/ConsumerProducer_C_API_test.h **** //
   2:src/ConsumerProducer_C_API_test.h **** // Created by os on 4/17/22.
   3:src/ConsumerProducer_C_API_test.h **** //
   4:src/ConsumerProducer_C_API_test.h **** 
   5:src/ConsumerProducer_C_API_test.h **** #ifndef XV6_CONSUMERPRODUCER_C_API_TEST_H
   6:src/ConsumerProducer_C_API_test.h **** #define XV6_CONSUMERPRODUCER_C_API_TEST_H
   7:src/ConsumerProducer_C_API_test.h **** 
   8:src/ConsumerProducer_C_API_test.h **** #include "../h/syscall_c.h"
   9:src/ConsumerProducer_C_API_test.h **** 
  10:src/ConsumerProducer_C_API_test.h **** #include "buffer.hpp"
  11:src/ConsumerProducer_C_API_test.h **** 
  12:src/ConsumerProducer_C_API_test.h **** #include "../lib/console.h"
  13:src/ConsumerProducer_C_API_test.h **** sem_t waitForAll;
  14:src/ConsumerProducer_C_API_test.h **** 
  15:src/ConsumerProducer_C_API_test.h **** struct thread_data {
  16:src/ConsumerProducer_C_API_test.h ****     int id;
  17:src/ConsumerProducer_C_API_test.h ****     Buffer *buffer;
  18:src/ConsumerProducer_C_API_test.h ****     sem_t wait;
  19:src/ConsumerProducer_C_API_test.h **** };
  20:src/ConsumerProducer_C_API_test.h **** 
GAS LISTING /tmp/ccXYaIow.s 			page 8


  21:src/ConsumerProducer_C_API_test.h **** volatile int threadEnd = 0;
  22:src/ConsumerProducer_C_API_test.h **** 
  23:src/ConsumerProducer_C_API_test.h **** void producerKeyboard(void *arg) {
 286              		.loc 2 23 34 is_stmt 1
 287              		.cfi_startproc
 288              	.LVL31:
 289 01a0 130101FE 		addi	sp,sp,-32
 290              		.cfi_def_cfa_offset 32
 291 01a4 233C1100 		sd	ra,24(sp)
 292 01a8 23388100 		sd	s0,16(sp)
 293 01ac 23349100 		sd	s1,8(sp)
 294 01b0 23302101 		sd	s2,0(sp)
 295              		.cfi_offset 1, -8
 296              		.cfi_offset 8, -16
 297              		.cfi_offset 9, -24
 298              		.cfi_offset 18, -32
 299 01b4 13040102 		addi	s0,sp,32
 300              		.cfi_def_cfa 8, 0
 301 01b8 93040500 		mv	s1,a0
  24:src/ConsumerProducer_C_API_test.h ****     struct thread_data *data = (struct thread_data *) arg;
 302              		.loc 2 24 5
 303              	.LVL32:
  25:src/ConsumerProducer_C_API_test.h **** 
  26:src/ConsumerProducer_C_API_test.h ****     int key;
 304              		.loc 2 26 5
  27:src/ConsumerProducer_C_API_test.h ****     int i = 0;
 305              		.loc 2 27 5
 306              		.loc 2 27 9 is_stmt 0
 307 01bc 13090000 		li	s2,0
 308 01c0 6F00C000 		j	.L18
 309              	.LVL33:
 310              	.L22:
  28:src/ConsumerProducer_C_API_test.h ****     while ((key = __getc()) != 0x1b) {
  29:src/ConsumerProducer_C_API_test.h ****         data->buffer->put(key);
  30:src/ConsumerProducer_C_API_test.h ****         i++;
  31:src/ConsumerProducer_C_API_test.h **** 
  32:src/ConsumerProducer_C_API_test.h ****         if (i % (10 * data->id) == 0) {
  33:src/ConsumerProducer_C_API_test.h ****             thread_dispatch();
 311              		.loc 2 33 13 is_stmt 1
 312              		.loc 2 33 28 is_stmt 0
 313 01c4 97000000 		call	_Z15thread_dispatchv@plt
 313      E7800000 
 314              	.LVL34:
 315              	.L18:
  28:src/ConsumerProducer_C_API_test.h ****     while ((key = __getc()) != 0x1b) {
 316              		.loc 2 28 5 is_stmt 1
  28:src/ConsumerProducer_C_API_test.h ****     while ((key = __getc()) != 0x1b) {
 317              		.loc 2 28 29
  28:src/ConsumerProducer_C_API_test.h ****     while ((key = __getc()) != 0x1b) {
 318              		.loc 2 28 25 is_stmt 0
 319 01cc 97000000 		call	__getc@plt
 319      E7800000 
 320              	.LVL35:
  28:src/ConsumerProducer_C_API_test.h ****     while ((key = __getc()) != 0x1b) {
 321              		.loc 2 28 17
 322 01d4 9B050500 		sext.w	a1,a0
 323              	.LVL36:
GAS LISTING /tmp/ccXYaIow.s 			page 9


  28:src/ConsumerProducer_C_API_test.h ****     while ((key = __getc()) != 0x1b) {
 324              		.loc 2 28 29
 325 01d8 9307B001 		li	a5,27
 326 01dc 638AF502 		beq	a1,a5,.L19
  29:src/ConsumerProducer_C_API_test.h ****         i++;
 327              		.loc 2 29 9 is_stmt 1
  29:src/ConsumerProducer_C_API_test.h ****         i++;
 328              		.loc 2 29 26 is_stmt 0
 329 01e0 03B58400 		ld	a0,8(s1)
 330 01e4 97000000 		call	_ZN6Buffer3putEi@plt
 330      E7800000 
 331              	.LVL37:
  30:src/ConsumerProducer_C_API_test.h **** 
 332              		.loc 2 30 9 is_stmt 1
  30:src/ConsumerProducer_C_API_test.h **** 
 333              		.loc 2 30 10 is_stmt 0
 334 01ec 1B071900 		addiw	a4,s2,1
 335 01f0 1B090700 		sext.w	s2,a4
 336              	.LVL38:
  32:src/ConsumerProducer_C_API_test.h ****             thread_dispatch();
 337              		.loc 2 32 9 is_stmt 1
  32:src/ConsumerProducer_C_API_test.h ****             thread_dispatch();
 338              		.loc 2 32 29 is_stmt 0
 339 01f4 83A60400 		lw	a3,0(s1)
  32:src/ConsumerProducer_C_API_test.h ****             thread_dispatch();
 340              		.loc 2 32 21
 341 01f8 9B972600 		slliw	a5,a3,2
 342 01fc BB87D700 		addw	a5,a5,a3
 343 0200 9B971700 		slliw	a5,a5,1
  32:src/ConsumerProducer_C_API_test.h ****             thread_dispatch();
 344              		.loc 2 32 15
 345 0204 BB67F702 		remw	a5,a4,a5
  32:src/ConsumerProducer_C_API_test.h ****             thread_dispatch();
 346              		.loc 2 32 9
 347 0208 E39207FC 		bnez	a5,.L18
 348 020c 6FF09FFB 		j	.L22
 349              	.LVL39:
 350              	.L19:
  34:src/ConsumerProducer_C_API_test.h ****         }
  35:src/ConsumerProducer_C_API_test.h ****     }
  36:src/ConsumerProducer_C_API_test.h **** 
  37:src/ConsumerProducer_C_API_test.h ****     threadEnd = 1;
 351              		.loc 2 37 5 is_stmt 1
 352              		.loc 2 37 15 is_stmt 0
 353 0210 93071000 		li	a5,1
 354 0214 17070000 		sw	a5,.LANCHOR0+4,a4
 354      2320F700 
  38:src/ConsumerProducer_C_API_test.h ****     data->buffer->put('!');
 355              		.loc 2 38 5 is_stmt 1
 356              		.loc 2 38 22 is_stmt 0
 357 021c 93051002 		li	a1,33
 358              	.LVL40:
 359 0220 03B58400 		ld	a0,8(s1)
 360              	.LVL41:
 361 0224 97000000 		call	_ZN6Buffer3putEi@plt
 361      E7800000 
 362              	.LVL42:
GAS LISTING /tmp/ccXYaIow.s 			page 10


  39:src/ConsumerProducer_C_API_test.h **** 
  40:src/ConsumerProducer_C_API_test.h ****     sem_signal(data->wait);
 363              		.loc 2 40 5 is_stmt 1
 364              		.loc 2 40 15 is_stmt 0
 365 022c 03B50401 		ld	a0,16(s1)
 366 0230 97000000 		call	_Z10sem_signalP4KSem@plt
 366      E7800000 
 367              	.LVL43:
  41:src/ConsumerProducer_C_API_test.h **** }
 368              		.loc 2 41 1
 369 0238 83308101 		ld	ra,24(sp)
 370              		.cfi_restore 1
 371 023c 03340101 		ld	s0,16(sp)
 372              		.cfi_restore 8
 373              		.cfi_def_cfa 2, 32
 374 0240 83348100 		ld	s1,8(sp)
 375              		.cfi_restore 9
 376              	.LVL44:
 377 0244 03390100 		ld	s2,0(sp)
 378              		.cfi_restore 18
 379              	.LVL45:
 380 0248 13010102 		addi	sp,sp,32
 381              		.cfi_def_cfa_offset 0
 382 024c 67800000 		jr	ra
 383              		.cfi_endproc
 384              	.LFE32:
 386              		.align	2
 387              		.globl	_Z8producerPv
 389              	_Z8producerPv:
 390              	.LFB33:
  42:src/ConsumerProducer_C_API_test.h **** 
  43:src/ConsumerProducer_C_API_test.h **** void producer(void *arg) {
 391              		.loc 2 43 26 is_stmt 1
 392              		.cfi_startproc
 393              	.LVL46:
 394 0250 130101FE 		addi	sp,sp,-32
 395              		.cfi_def_cfa_offset 32
 396 0254 233C1100 		sd	ra,24(sp)
 397 0258 23388100 		sd	s0,16(sp)
 398 025c 23349100 		sd	s1,8(sp)
 399 0260 23302101 		sd	s2,0(sp)
 400              		.cfi_offset 1, -8
 401              		.cfi_offset 8, -16
 402              		.cfi_offset 9, -24
 403              		.cfi_offset 18, -32
 404 0264 13040102 		addi	s0,sp,32
 405              		.cfi_def_cfa 8, 0
 406 0268 93040500 		mv	s1,a0
  44:src/ConsumerProducer_C_API_test.h ****     struct thread_data *data = (struct thread_data *) arg;
 407              		.loc 2 44 5
 408              	.LVL47:
  45:src/ConsumerProducer_C_API_test.h **** 
  46:src/ConsumerProducer_C_API_test.h ****     int i = 0;
 409              		.loc 2 46 5
 410              		.loc 2 46 9 is_stmt 0
 411 026c 13090000 		li	s2,0
 412 0270 6F00C000 		j	.L24
GAS LISTING /tmp/ccXYaIow.s 			page 11


 413              	.LVL48:
 414              	.L28:
  47:src/ConsumerProducer_C_API_test.h ****     while (!threadEnd) {
  48:src/ConsumerProducer_C_API_test.h ****         data->buffer->put(data->id + '0');
  49:src/ConsumerProducer_C_API_test.h ****         i++;
  50:src/ConsumerProducer_C_API_test.h **** 
  51:src/ConsumerProducer_C_API_test.h ****         if (i % (10 * data->id) == 0) {
  52:src/ConsumerProducer_C_API_test.h ****             thread_dispatch();
 415              		.loc 2 52 13 is_stmt 1
 416              		.loc 2 52 28 is_stmt 0
 417 0274 97000000 		call	_Z15thread_dispatchv@plt
 417      E7800000 
 418              	.LVL49:
 419              	.L24:
  47:src/ConsumerProducer_C_API_test.h ****     while (!threadEnd) {
 420              		.loc 2 47 5 is_stmt 1
  47:src/ConsumerProducer_C_API_test.h ****     while (!threadEnd) {
 421              		.loc 2 47 12
 422 027c 97070000 		lw	a5,.LANCHOR0+4
 422      83A70700 
 423 0284 639E0702 		bnez	a5,.L25
  48:src/ConsumerProducer_C_API_test.h ****         i++;
 424              		.loc 2 48 9
  48:src/ConsumerProducer_C_API_test.h ****         i++;
 425              		.loc 2 48 33 is_stmt 0
 426 0288 83A50400 		lw	a1,0(s1)
  48:src/ConsumerProducer_C_API_test.h ****         i++;
 427              		.loc 2 48 26
 428 028c 9B850503 		addiw	a1,a1,48
 429 0290 03B58400 		ld	a0,8(s1)
 430 0294 97000000 		call	_ZN6Buffer3putEi@plt
 430      E7800000 
 431              	.LVL50:
  49:src/ConsumerProducer_C_API_test.h **** 
 432              		.loc 2 49 9 is_stmt 1
  49:src/ConsumerProducer_C_API_test.h **** 
 433              		.loc 2 49 10 is_stmt 0
 434 029c 1B071900 		addiw	a4,s2,1
 435 02a0 1B090700 		sext.w	s2,a4
 436              	.LVL51:
  51:src/ConsumerProducer_C_API_test.h ****             thread_dispatch();
 437              		.loc 2 51 9 is_stmt 1
  51:src/ConsumerProducer_C_API_test.h ****             thread_dispatch();
 438              		.loc 2 51 29 is_stmt 0
 439 02a4 83A60400 		lw	a3,0(s1)
  51:src/ConsumerProducer_C_API_test.h ****             thread_dispatch();
 440              		.loc 2 51 21
 441 02a8 9B972600 		slliw	a5,a3,2
 442 02ac BB87D700 		addw	a5,a5,a3
 443 02b0 9B971700 		slliw	a5,a5,1
  51:src/ConsumerProducer_C_API_test.h ****             thread_dispatch();
 444              		.loc 2 51 15
 445 02b4 BB67F702 		remw	a5,a4,a5
  51:src/ConsumerProducer_C_API_test.h ****             thread_dispatch();
 446              		.loc 2 51 9
 447 02b8 E39207FC 		bnez	a5,.L24
 448 02bc 6FF09FFB 		j	.L28
GAS LISTING /tmp/ccXYaIow.s 			page 12


 449              	.LVL52:
 450              	.L25:
  53:src/ConsumerProducer_C_API_test.h ****         }
  54:src/ConsumerProducer_C_API_test.h ****     }
  55:src/ConsumerProducer_C_API_test.h **** 
  56:src/ConsumerProducer_C_API_test.h ****     sem_signal(data->wait);
 451              		.loc 2 56 5 is_stmt 1
 452              		.loc 2 56 15 is_stmt 0
 453 02c0 03B50401 		ld	a0,16(s1)
 454 02c4 97000000 		call	_Z10sem_signalP4KSem@plt
 454      E7800000 
 455              	.LVL53:
  57:src/ConsumerProducer_C_API_test.h **** }
 456              		.loc 2 57 1
 457 02cc 83308101 		ld	ra,24(sp)
 458              		.cfi_restore 1
 459 02d0 03340101 		ld	s0,16(sp)
 460              		.cfi_restore 8
 461              		.cfi_def_cfa 2, 32
 462 02d4 83348100 		ld	s1,8(sp)
 463              		.cfi_restore 9
 464              	.LVL54:
 465 02d8 03390100 		ld	s2,0(sp)
 466              		.cfi_restore 18
 467              	.LVL55:
 468 02dc 13010102 		addi	sp,sp,32
 469              		.cfi_def_cfa_offset 0
 470 02e0 67800000 		jr	ra
 471              		.cfi_endproc
 472              	.LFE33:
 474              		.align	2
 475              		.globl	_Z8consumerPv
 477              	_Z8consumerPv:
 478              	.LFB34:
  58:src/ConsumerProducer_C_API_test.h **** 
  59:src/ConsumerProducer_C_API_test.h **** void consumer(void *arg) {
 479              		.loc 2 59 26 is_stmt 1
 480              		.cfi_startproc
 481              	.LVL56:
 482 02e4 130101FD 		addi	sp,sp,-48
 483              		.cfi_def_cfa_offset 48
 484 02e8 23341102 		sd	ra,40(sp)
 485 02ec 23308102 		sd	s0,32(sp)
 486 02f0 233C9100 		sd	s1,24(sp)
 487 02f4 23382101 		sd	s2,16(sp)
 488 02f8 23343101 		sd	s3,8(sp)
 489              		.cfi_offset 1, -8
 490              		.cfi_offset 8, -16
 491              		.cfi_offset 9, -24
 492              		.cfi_offset 18, -32
 493              		.cfi_offset 19, -40
 494 02fc 13040103 		addi	s0,sp,48
 495              		.cfi_def_cfa 8, 0
 496 0300 13090500 		mv	s2,a0
  60:src/ConsumerProducer_C_API_test.h ****     struct thread_data *data = (struct thread_data *) arg;
 497              		.loc 2 60 5
 498              	.LVL57:
GAS LISTING /tmp/ccXYaIow.s 			page 13


  61:src/ConsumerProducer_C_API_test.h **** 
  62:src/ConsumerProducer_C_API_test.h ****     int i = 0;
 499              		.loc 2 62 5
 500              		.loc 2 62 9 is_stmt 0
 501 0304 93090000 		li	s3,0
 502 0308 6F00C001 		j	.L30
 503              	.LVL58:
 504              	.L36:
 505              	.LBB18:
  63:src/ConsumerProducer_C_API_test.h ****     while (!threadEnd) {
  64:src/ConsumerProducer_C_API_test.h ****         int key = data->buffer->get();
  65:src/ConsumerProducer_C_API_test.h ****         i++;
  66:src/ConsumerProducer_C_API_test.h **** 
  67:src/ConsumerProducer_C_API_test.h ****         __putc(key);
  68:src/ConsumerProducer_C_API_test.h **** 
  69:src/ConsumerProducer_C_API_test.h ****         if (i % (5 * data->id) == 0) {
  70:src/ConsumerProducer_C_API_test.h ****             thread_dispatch();
 506              		.loc 2 70 13 is_stmt 1
 507              		.loc 2 70 28 is_stmt 0
 508 030c 97000000 		call	_Z15thread_dispatchv@plt
 508      E7800000 
 509              	.LVL59:
 510 0314 6F000005 		j	.L32
 511              	.LVL60:
 512              	.L37:
  71:src/ConsumerProducer_C_API_test.h ****         }
  72:src/ConsumerProducer_C_API_test.h **** 
  73:src/ConsumerProducer_C_API_test.h ****         if (i % 80 == 0) {
  74:src/ConsumerProducer_C_API_test.h ****             __putc('\n');
 513              		.loc 2 74 13 is_stmt 1
 514              		.loc 2 74 19 is_stmt 0
 515 0318 1305A000 		li	a0,10
 516 031c 97000000 		call	__putc@plt
 516      E7800000 
 517              	.LVL61:
 518              	.L30:
 519              	.LBE18:
  63:src/ConsumerProducer_C_API_test.h ****     while (!threadEnd) {
 520              		.loc 2 63 5 is_stmt 1
  63:src/ConsumerProducer_C_API_test.h ****     while (!threadEnd) {
 521              		.loc 2 63 12
 522 0324 97070000 		lw	a5,.LANCHOR0+4
 522      83A70700 
 523 032c 63900706 		bnez	a5,.L31
 524              	.LBB19:
  64:src/ConsumerProducer_C_API_test.h ****         i++;
 525              		.loc 2 64 9
  64:src/ConsumerProducer_C_API_test.h ****         i++;
 526              		.loc 2 64 36 is_stmt 0
 527 0330 03358900 		ld	a0,8(s2)
 528 0334 97000000 		call	_ZN6Buffer3getEv@plt
 528      E7800000 
 529              	.LVL62:
  65:src/ConsumerProducer_C_API_test.h **** 
 530              		.loc 2 65 9 is_stmt 1
  65:src/ConsumerProducer_C_API_test.h **** 
 531              		.loc 2 65 10 is_stmt 0
GAS LISTING /tmp/ccXYaIow.s 			page 14


 532 033c 9B841900 		addiw	s1,s3,1
 533 0340 9B890400 		sext.w	s3,s1
 534              	.LVL63:
  67:src/ConsumerProducer_C_API_test.h **** 
 535              		.loc 2 67 9 is_stmt 1
  67:src/ConsumerProducer_C_API_test.h **** 
 536              		.loc 2 67 15 is_stmt 0
 537 0344 1375F50F 		andi	a0,a0,0xff
 538              	.LVL64:
 539 0348 97000000 		call	__putc@plt
 539      E7800000 
 540              	.LVL65:
  69:src/ConsumerProducer_C_API_test.h ****             thread_dispatch();
 541              		.loc 2 69 9 is_stmt 1
  69:src/ConsumerProducer_C_API_test.h ****             thread_dispatch();
 542              		.loc 2 69 28 is_stmt 0
 543 0350 03270900 		lw	a4,0(s2)
  69:src/ConsumerProducer_C_API_test.h ****             thread_dispatch();
 544              		.loc 2 69 20
 545 0354 9B172700 		slliw	a5,a4,2
 546 0358 BB87E700 		addw	a5,a5,a4
  69:src/ConsumerProducer_C_API_test.h ****             thread_dispatch();
 547              		.loc 2 69 15
 548 035c BBE7F402 		remw	a5,s1,a5
  69:src/ConsumerProducer_C_API_test.h ****             thread_dispatch();
 549              		.loc 2 69 9
 550 0360 E38607FA 		beqz	a5,.L36
 551              	.L32:
  73:src/ConsumerProducer_C_API_test.h ****             __putc('\n');
 552              		.loc 2 73 9 is_stmt 1
  73:src/ConsumerProducer_C_API_test.h ****             __putc('\n');
 553              		.loc 2 73 15 is_stmt 0
 554 0364 93070005 		li	a5,80
 555 0368 BBE4F402 		remw	s1,s1,a5
 556              	.LVL66:
  73:src/ConsumerProducer_C_API_test.h ****             __putc('\n');
 557              		.loc 2 73 9
 558 036c E39C04FA 		bnez	s1,.L30
 559 0370 6FF09FFA 		j	.L37
 560              	.L38:
 561              	.LBE19:
 562              	.LBB20:
  75:src/ConsumerProducer_C_API_test.h ****         }
  76:src/ConsumerProducer_C_API_test.h ****     }
  77:src/ConsumerProducer_C_API_test.h **** 
  78:src/ConsumerProducer_C_API_test.h ****     while (data->buffer->getCnt() > 0) { //getCnt
  79:src/ConsumerProducer_C_API_test.h ****         int key = data->buffer->get();
 563              		.loc 2 79 9 is_stmt 1
 564              		.loc 2 79 36 is_stmt 0
 565 0374 03358900 		ld	a0,8(s2)
 566 0378 97000000 		call	_ZN6Buffer3getEv@plt
 566      E7800000 
 567              	.LVL67:
  80:src/ConsumerProducer_C_API_test.h ****         __putc(key);
 568              		.loc 2 80 9 is_stmt 1
 569              		.loc 2 80 15 is_stmt 0
 570 0380 1375F50F 		andi	a0,a0,0xff
GAS LISTING /tmp/ccXYaIow.s 			page 15


 571              	.LVL68:
 572 0384 97000000 		call	__putc@plt
 572      E7800000 
 573              	.LVL69:
 574              	.L31:
 575              	.LBE20:
  78:src/ConsumerProducer_C_API_test.h ****         int key = data->buffer->get();
 576              		.loc 2 78 5 is_stmt 1
  78:src/ConsumerProducer_C_API_test.h ****         int key = data->buffer->get();
 577              		.loc 2 78 35
  78:src/ConsumerProducer_C_API_test.h ****         int key = data->buffer->get();
 578              		.loc 2 78 32 is_stmt 0
 579 038c 03358900 		ld	a0,8(s2)
 580 0390 97000000 		call	_ZN6Buffer6getCntEv@plt
 580      E7800000 
 581              	.LVL70:
  78:src/ConsumerProducer_C_API_test.h ****         int key = data->buffer->get();
 582              		.loc 2 78 35
 583 0398 E34EA0FC 		bgtz	a0,.L38
  81:src/ConsumerProducer_C_API_test.h ****     }
  82:src/ConsumerProducer_C_API_test.h **** 
  83:src/ConsumerProducer_C_API_test.h ****     sem_signal(data->wait);
 584              		.loc 2 83 5 is_stmt 1
 585              		.loc 2 83 15 is_stmt 0
 586 039c 03350901 		ld	a0,16(s2)
 587 03a0 97000000 		call	_Z10sem_signalP4KSem@plt
 587      E7800000 
 588              	.LVL71:
  84:src/ConsumerProducer_C_API_test.h **** }
 589              		.loc 2 84 1
 590 03a8 83308102 		ld	ra,40(sp)
 591              		.cfi_restore 1
 592 03ac 03340102 		ld	s0,32(sp)
 593              		.cfi_restore 8
 594              		.cfi_def_cfa 2, 48
 595 03b0 83348101 		ld	s1,24(sp)
 596              		.cfi_restore 9
 597 03b4 03390101 		ld	s2,16(sp)
 598              		.cfi_restore 18
 599              	.LVL72:
 600 03b8 83398100 		ld	s3,8(sp)
 601              		.cfi_restore 19
 602              	.LVL73:
 603 03bc 13010103 		addi	sp,sp,48
 604              		.cfi_def_cfa_offset 0
 605 03c0 67800000 		jr	ra
 606              		.cfi_endproc
 607              	.LFE34:
 609              		.align	2
 610              		.globl	_Z9fibonaccim
 612              	_Z9fibonaccim:
 613              	.LFB26:
  12:src/Threads_C_API_test.hpp ****     if (n == 0 || n == 1) { return n; }
 614              		.loc 1 12 28 is_stmt 1
 615              		.cfi_startproc
 616              	.LVL74:
 617 03c4 130101FE 		addi	sp,sp,-32
GAS LISTING /tmp/ccXYaIow.s 			page 16


 618              		.cfi_def_cfa_offset 32
 619 03c8 233C1100 		sd	ra,24(sp)
 620 03cc 23388100 		sd	s0,16(sp)
 621 03d0 23349100 		sd	s1,8(sp)
 622 03d4 23302101 		sd	s2,0(sp)
 623              		.cfi_offset 1, -8
 624              		.cfi_offset 8, -16
 625              		.cfi_offset 9, -24
 626              		.cfi_offset 18, -32
 627 03d8 13040102 		addi	s0,sp,32
 628              		.cfi_def_cfa 8, 0
 629 03dc 93040500 		mv	s1,a0
  13:src/Threads_C_API_test.hpp ****     if (n % 10 == 0) { thread_dispatch(); }
 630              		.loc 1 13 5
 631 03e0 93071000 		li	a5,1
 632 03e4 63F8A702 		bleu	a0,a5,.L39
  14:src/Threads_C_API_test.hpp ****     return fibonacci(n - 1) + fibonacci(n - 2);
 633              		.loc 1 14 5
  14:src/Threads_C_API_test.hpp ****     return fibonacci(n - 1) + fibonacci(n - 2);
 634              		.loc 1 14 11 is_stmt 0
 635 03e8 9307A000 		li	a5,10
 636 03ec B377F502 		remu	a5,a0,a5
  14:src/Threads_C_API_test.hpp ****     return fibonacci(n - 1) + fibonacci(n - 2);
 637              		.loc 1 14 5
 638 03f0 638E0702 		beqz	a5,.L44
 639              	.LVL75:
 640              	.L41:
  15:src/Threads_C_API_test.hpp **** }
 641              		.loc 1 15 5 is_stmt 1
  15:src/Threads_C_API_test.hpp **** }
 642              		.loc 1 15 21 is_stmt 0
 643 03f4 1385F4FF 		addi	a0,s1,-1
 644 03f8 97000000 		call	_Z9fibonaccim
 644      E7800000 
 645              	.LVL76:
 646 0400 13090500 		mv	s2,a0
  15:src/Threads_C_API_test.hpp **** }
 647              		.loc 1 15 40
 648 0404 1385E4FF 		addi	a0,s1,-2
 649 0408 97000000 		call	_Z9fibonaccim
 649      E7800000 
 650              	.LVL77:
  15:src/Threads_C_API_test.hpp **** }
 651              		.loc 1 15 46
 652 0410 3305A900 		add	a0,s2,a0
 653              	.L39:
  16:src/Threads_C_API_test.hpp **** 
 654              		.loc 1 16 1
 655 0414 83308101 		ld	ra,24(sp)
 656              		.cfi_remember_state
 657              		.cfi_restore 1
 658 0418 03340101 		ld	s0,16(sp)
 659              		.cfi_restore 8
 660              		.cfi_def_cfa 2, 32
 661 041c 83348100 		ld	s1,8(sp)
 662              		.cfi_restore 9
 663              	.LVL78:
GAS LISTING /tmp/ccXYaIow.s 			page 17


 664 0420 03390100 		ld	s2,0(sp)
 665              		.cfi_restore 18
 666 0424 13010102 		addi	sp,sp,32
 667              		.cfi_def_cfa_offset 0
 668 0428 67800000 		jr	ra
 669              	.LVL79:
 670              	.L44:
 671              		.cfi_restore_state
  14:src/Threads_C_API_test.hpp ****     return fibonacci(n - 1) + fibonacci(n - 2);
 672              		.loc 1 14 24 is_stmt 1 discriminator 1
  14:src/Threads_C_API_test.hpp ****     return fibonacci(n - 1) + fibonacci(n - 2);
 673              		.loc 1 14 39 is_stmt 0 discriminator 1
 674 042c 97000000 		call	_Z15thread_dispatchv@plt
 674      E7800000 
 675              	.LVL80:
 676 0434 6FF01FFC 		j	.L41
 677              		.cfi_endproc
 678              	.LFE26:
 680              		.section	.rodata.str1.8
 681 0035 000000   		.align	3
 682              	.LC5:
 683 0038 433A2069 		.string	"C: i="
 683      3D00
 684 003e 0000     		.align	3
 685              	.LC6:
 686 0040 433A2064 		.string	"C: dispatch\n"
 686      69737061 
 686      7463680A 
 686      00
 687 004d 000000   		.align	3
 688              	.LC7:
 689 0050 433A2074 		.string	"C: t1="
 689      313D00
 690 0057 00       		.align	3
 691              	.LC8:
 692 0058 433A2066 		.string	"C: fibonaci="
 692      69626F6E 
 692      6163693D 
 692      00
 693 0065 000000   		.align	3
 694              	.LC9:
 695 0068 43206669 		.string	"C finished!\n"
 695      6E697368 
 695      6564210A 
 695      00
 696              		.text
 697              		.align	2
 698              		.globl	_Z11workerBodyCPv
 700              	_Z11workerBodyCPv:
 701              	.LFB29:
  42:src/Threads_C_API_test.hpp **** 
  43:src/Threads_C_API_test.hpp **** void workerBodyC(void* arg) {
 702              		.loc 1 43 29 is_stmt 1
 703              		.cfi_startproc
 704              	.LVL81:
 705 0438 130101FE 		addi	sp,sp,-32
 706              		.cfi_def_cfa_offset 32
GAS LISTING /tmp/ccXYaIow.s 			page 18


 707 043c 233C1100 		sd	ra,24(sp)
 708 0440 23388100 		sd	s0,16(sp)
 709 0444 23349100 		sd	s1,8(sp)
 710 0448 23302101 		sd	s2,0(sp)
 711              		.cfi_offset 1, -8
 712              		.cfi_offset 8, -16
 713              		.cfi_offset 9, -24
 714              		.cfi_offset 18, -32
 715 044c 13040102 		addi	s0,sp,32
 716              		.cfi_def_cfa 8, 0
  44:src/Threads_C_API_test.hpp ****     uint8 i = 0;
 717              		.loc 1 44 5
 718              	.LVL82:
 719              		.loc 1 44 11 is_stmt 0
 720 0450 93040000 		li	s1,0
 721 0454 6F000004 		j	.L47
 722              	.LVL83:
 723              	.L51:
  45:src/Threads_C_API_test.hpp ****     for (; i < 3; i++) {
  46:src/Threads_C_API_test.hpp ****         printString("C: i="); printInt(i); printString("\n");
 724              		.loc 1 46 9 is_stmt 1 discriminator 1
 725              		.loc 1 46 20 is_stmt 0 discriminator 1
 726 0458 17050000 		lla	a0,.LC5
 726      13050500 
 727 0460 97000000 		call	_Z11printStringPKc@plt
 727      E7800000 
 728              	.LVL84:
 729              		.loc 1 46 31 is_stmt 1 discriminator 1
 730              		.loc 1 46 39 is_stmt 0 discriminator 1
 731 0468 13060000 		li	a2,0
 732 046c 9305A000 		li	a1,10
 733 0470 13850400 		mv	a0,s1
 734 0474 97000000 		call	_Z8printIntiii@plt
 734      E7800000 
 735              	.LVL85:
 736              		.loc 1 46 44 is_stmt 1 discriminator 1
 737              		.loc 1 46 55 is_stmt 0 discriminator 1
 738 047c 17050000 		lla	a0,.LC1
 738      13050500 
 739 0484 97000000 		call	_Z11printStringPKc@plt
 739      E7800000 
 740              	.LVL86:
  45:src/Threads_C_API_test.hpp ****     for (; i < 3; i++) {
 741              		.loc 1 45 5 is_stmt 1 discriminator 1
 742 048c 9B841400 		addiw	s1,s1,1
 743              	.LVL87:
 744 0490 93F4F40F 		andi	s1,s1,0xff
 745              	.LVL88:
 746              	.L47:
  45:src/Threads_C_API_test.hpp ****     for (; i < 3; i++) {
 747              		.loc 1 45 5 discriminator 2
  45:src/Threads_C_API_test.hpp ****     for (; i < 3; i++) {
 748              		.loc 1 45 14 discriminator 2
 749 0494 93072000 		li	a5,2
 750 0498 E3F097FC 		bleu	s1,a5,.L51
  47:src/Threads_C_API_test.hpp ****     }
  48:src/Threads_C_API_test.hpp **** 
GAS LISTING /tmp/ccXYaIow.s 			page 19


  49:src/Threads_C_API_test.hpp ****     printString("C: dispatch\n");
 751              		.loc 1 49 5
 752              		.loc 1 49 16 is_stmt 0
 753 049c 17050000 		lla	a0,.LC6
 753      13050500 
 754 04a4 97000000 		call	_Z11printStringPKc@plt
 754      E7800000 
 755              	.LVL89:
  50:src/Threads_C_API_test.hpp ****     __asm__ ("li t1, 7");
 756              		.loc 1 50 5 is_stmt 1
 757              		.loc 1 50 25 is_stmt 0
 758              	#APP
 759              	# 50 "src/Threads_C_API_test.hpp" 1
  51              	    thread_dispatch();
 760              		li t1, 7
 761              	# 0 "" 2
 762              		.loc 1 51 5 is_stmt 1
 763              		.loc 1 51 20 is_stmt 0
 764              	#NO_APP
 765 04b0 97000000 		call	_Z15thread_dispatchv@plt
 765      E7800000 
 766              	.LVL90:
  52:src/Threads_C_API_test.hpp **** 
  53:src/Threads_C_API_test.hpp ****     uint64 t1 = 0;
 767              		.loc 1 53 5 is_stmt 1
  54:src/Threads_C_API_test.hpp ****     __asm__ ("mv %[t1], t1" : [t1] "=r"(t1));
 768              		.loc 1 54 5
 769              		.loc 1 54 45 is_stmt 0
 770              	#APP
 771              	# 54 "src/Threads_C_API_test.hpp" 1
  55              	
 772              		mv s2, t1
 773              	# 0 "" 2
 774              	.LVL91:
  56:src/Threads_C_API_test.hpp ****     printString("C: t1="); printInt(t1); printString("\n");
 775              		.loc 1 56 5 is_stmt 1
 776              		.loc 1 56 16 is_stmt 0
 777              	#NO_APP
 778 04bc 17050000 		lla	a0,.LC7
 778      13050500 
 779 04c4 97000000 		call	_Z11printStringPKc@plt
 779      E7800000 
 780              	.LVL92:
 781              		.loc 1 56 28 is_stmt 1
 782              		.loc 1 56 36 is_stmt 0
 783 04cc 13060000 		li	a2,0
 784 04d0 9305A000 		li	a1,10
 785 04d4 1B050900 		sext.w	a0,s2
 786 04d8 97000000 		call	_Z8printIntiii@plt
 786      E7800000 
 787              	.LVL93:
 788              		.loc 1 56 42 is_stmt 1
 789              		.loc 1 56 53 is_stmt 0
 790 04e0 17050000 		lla	a0,.LC1
 790      13050500 
 791 04e8 97000000 		call	_Z11printStringPKc@plt
 791      E7800000 
GAS LISTING /tmp/ccXYaIow.s 			page 20


 792              	.LVL94:
  57:src/Threads_C_API_test.hpp **** 
  58:src/Threads_C_API_test.hpp ****     uint64 result = fibonacci(12);
 793              		.loc 1 58 5 is_stmt 1
 794              		.loc 1 58 30 is_stmt 0
 795 04f0 1305C000 		li	a0,12
 796 04f4 97000000 		call	_Z9fibonaccim
 796      E7800000 
 797              	.LVL95:
 798 04fc 13090500 		mv	s2,a0
 799              	.LVL96:
  59:src/Threads_C_API_test.hpp ****     printString("C: fibonaci="); printInt(result); printString("\n");
 800              		.loc 1 59 5 is_stmt 1
 801              		.loc 1 59 16 is_stmt 0
 802 0500 17050000 		lla	a0,.LC8
 802      13050500 
 803              	.LVL97:
 804 0508 97000000 		call	_Z11printStringPKc@plt
 804      E7800000 
 805              	.LVL98:
 806              		.loc 1 59 34 is_stmt 1
 807              		.loc 1 59 42 is_stmt 0
 808 0510 13060000 		li	a2,0
 809 0514 9305A000 		li	a1,10
 810 0518 1B050900 		sext.w	a0,s2
 811 051c 97000000 		call	_Z8printIntiii@plt
 811      E7800000 
 812              	.LVL99:
 813              		.loc 1 59 52 is_stmt 1
 814              		.loc 1 59 63 is_stmt 0
 815 0524 17050000 		lla	a0,.LC1
 815      13050500 
 816 052c 97000000 		call	_Z11printStringPKc@plt
 816      E7800000 
 817              	.LVL100:
 818 0534 6F000004 		j	.L49
 819              	.L52:
  60:src/Threads_C_API_test.hpp **** 
  61:src/Threads_C_API_test.hpp ****     for (; i < 6; i++) {
  62:src/Threads_C_API_test.hpp ****        printString("C: i="); printInt(i); printString("\n");
 820              		.loc 1 62 8 is_stmt 1 discriminator 1
 821              		.loc 1 62 19 is_stmt 0 discriminator 1
 822 0538 17050000 		lla	a0,.LC5
 822      13050500 
 823 0540 97000000 		call	_Z11printStringPKc@plt
 823      E7800000 
 824              	.LVL101:
 825              		.loc 1 62 30 is_stmt 1 discriminator 1
 826              		.loc 1 62 38 is_stmt 0 discriminator 1
 827 0548 13060000 		li	a2,0
 828 054c 9305A000 		li	a1,10
 829 0550 13850400 		mv	a0,s1
 830 0554 97000000 		call	_Z8printIntiii@plt
 830      E7800000 
 831              	.LVL102:
 832              		.loc 1 62 43 is_stmt 1 discriminator 1
 833              		.loc 1 62 54 is_stmt 0 discriminator 1
GAS LISTING /tmp/ccXYaIow.s 			page 21


 834 055c 17050000 		lla	a0,.LC1
 834      13050500 
 835 0564 97000000 		call	_Z11printStringPKc@plt
 835      E7800000 
 836              	.LVL103:
  61:src/Threads_C_API_test.hpp ****        printString("C: i="); printInt(i); printString("\n");
 837              		.loc 1 61 5 is_stmt 1 discriminator 1
 838 056c 9B841400 		addiw	s1,s1,1
 839              	.LVL104:
 840 0570 93F4F40F 		andi	s1,s1,0xff
 841              	.LVL105:
 842              	.L49:
  61:src/Threads_C_API_test.hpp ****        printString("C: i="); printInt(i); printString("\n");
 843              		.loc 1 61 5 discriminator 2
  61:src/Threads_C_API_test.hpp ****        printString("C: i="); printInt(i); printString("\n");
 844              		.loc 1 61 14 discriminator 2
 845 0574 93075000 		li	a5,5
 846 0578 E3F097FC 		bleu	s1,a5,.L52
  63:src/Threads_C_API_test.hpp ****     }
  64:src/Threads_C_API_test.hpp ****     printString("C finished!\n");
 847              		.loc 1 64 5
 848              		.loc 1 64 16 is_stmt 0
 849 057c 17050000 		lla	a0,.LC9
 849      13050500 
 850 0584 97000000 		call	_Z11printStringPKc@plt
 850      E7800000 
 851              	.LVL106:
  65:src/Threads_C_API_test.hpp ****     finishedC = true;
 852              		.loc 1 65 5 is_stmt 1
 853              		.loc 1 65 15 is_stmt 0
 854 058c 93071000 		li	a5,1
 855 0590 17070000 		sb	a5,.LANCHOR0+8,a4
 855      2300F700 
  66:src/Threads_C_API_test.hpp ****     thread_dispatch();
 856              		.loc 1 66 5 is_stmt 1
 857              		.loc 1 66 20 is_stmt 0
 858 0598 97000000 		call	_Z15thread_dispatchv@plt
 858      E7800000 
 859              	.LVL107:
  67:src/Threads_C_API_test.hpp **** }
 860              		.loc 1 67 1
 861 05a0 83308101 		ld	ra,24(sp)
 862              		.cfi_restore 1
 863 05a4 03340101 		ld	s0,16(sp)
 864              		.cfi_restore 8
 865              		.cfi_def_cfa 2, 32
 866 05a8 83348100 		ld	s1,8(sp)
 867              		.cfi_restore 9
 868              	.LVL108:
 869 05ac 03390100 		ld	s2,0(sp)
 870              		.cfi_restore 18
 871              	.LVL109:
 872 05b0 13010102 		addi	sp,sp,32
 873              		.cfi_def_cfa_offset 0
 874 05b4 67800000 		jr	ra
 875              		.cfi_endproc
 876              	.LFE29:
GAS LISTING /tmp/ccXYaIow.s 			page 22


 878              		.section	.rodata.str1.8
 879 0075 000000   		.align	3
 880              	.LC10:
 881 0078 443A2069 		.string	"D: i="
 881      3D00
 882 007e 0000     		.align	3
 883              	.LC11:
 884 0080 443A2064 		.string	"D: dispatch\n"
 884      69737061 
 884      7463680A 
 884      00
 885 008d 000000   		.align	3
 886              	.LC12:
 887 0090 443A2066 		.string	"D: fibonaci="
 887      69626F6E 
 887      6163693D 
 887      00
 888 009d 000000   		.align	3
 889              	.LC13:
 890 00a0 44206669 		.string	"D finished!\n"
 890      6E697368 
 890      6564210A 
 890      00
 891              		.text
 892              		.align	2
 893              		.globl	_Z11workerBodyDPv
 895              	_Z11workerBodyDPv:
 896              	.LFB30:
  68:src/Threads_C_API_test.hpp **** 
  69:src/Threads_C_API_test.hpp **** void workerBodyD(void* arg) {
 897              		.loc 1 69 29 is_stmt 1
 898              		.cfi_startproc
 899              	.LVL110:
 900 05b8 130101FE 		addi	sp,sp,-32
 901              		.cfi_def_cfa_offset 32
 902 05bc 233C1100 		sd	ra,24(sp)
 903 05c0 23388100 		sd	s0,16(sp)
 904 05c4 23349100 		sd	s1,8(sp)
 905 05c8 23302101 		sd	s2,0(sp)
 906              		.cfi_offset 1, -8
 907              		.cfi_offset 8, -16
 908              		.cfi_offset 9, -24
 909              		.cfi_offset 18, -32
 910 05cc 13040102 		addi	s0,sp,32
 911              		.cfi_def_cfa 8, 0
  70:src/Threads_C_API_test.hpp ****     uint8 i = 10;
 912              		.loc 1 70 5
 913              	.LVL111:
 914              		.loc 1 70 11 is_stmt 0
 915 05d0 9304A000 		li	s1,10
 916 05d4 6F000004 		j	.L55
 917              	.LVL112:
 918              	.L59:
  71:src/Threads_C_API_test.hpp ****     for (; i < 13; i++) {
  72:src/Threads_C_API_test.hpp ****         printString("D: i="); printInt(i); printString("\n");
 919              		.loc 1 72 9 is_stmt 1 discriminator 1
 920              		.loc 1 72 20 is_stmt 0 discriminator 1
GAS LISTING /tmp/ccXYaIow.s 			page 23


 921 05d8 17050000 		lla	a0,.LC10
 921      13050500 
 922 05e0 97000000 		call	_Z11printStringPKc@plt
 922      E7800000 
 923              	.LVL113:
 924              		.loc 1 72 31 is_stmt 1 discriminator 1
 925              		.loc 1 72 39 is_stmt 0 discriminator 1
 926 05e8 13060000 		li	a2,0
 927 05ec 9305A000 		li	a1,10
 928 05f0 13850400 		mv	a0,s1
 929 05f4 97000000 		call	_Z8printIntiii@plt
 929      E7800000 
 930              	.LVL114:
 931              		.loc 1 72 44 is_stmt 1 discriminator 1
 932              		.loc 1 72 55 is_stmt 0 discriminator 1
 933 05fc 17050000 		lla	a0,.LC1
 933      13050500 
 934 0604 97000000 		call	_Z11printStringPKc@plt
 934      E7800000 
 935              	.LVL115:
  71:src/Threads_C_API_test.hpp ****     for (; i < 13; i++) {
 936              		.loc 1 71 5 is_stmt 1 discriminator 1
 937 060c 9B841400 		addiw	s1,s1,1
 938              	.LVL116:
 939 0610 93F4F40F 		andi	s1,s1,0xff
 940              	.LVL117:
 941              	.L55:
  71:src/Threads_C_API_test.hpp ****     for (; i < 13; i++) {
 942              		.loc 1 71 5 discriminator 2
  71:src/Threads_C_API_test.hpp ****     for (; i < 13; i++) {
 943              		.loc 1 71 14 discriminator 2
 944 0614 9307C000 		li	a5,12
 945 0618 E3F097FC 		bleu	s1,a5,.L59
  73:src/Threads_C_API_test.hpp ****     }
  74:src/Threads_C_API_test.hpp **** 
  75:src/Threads_C_API_test.hpp ****    printString("D: dispatch\n");
 946              		.loc 1 75 4
 947              		.loc 1 75 15 is_stmt 0
 948 061c 17050000 		lla	a0,.LC11
 948      13050500 
 949 0624 97000000 		call	_Z11printStringPKc@plt
 949      E7800000 
 950              	.LVL118:
  76:src/Threads_C_API_test.hpp ****     __asm__ ("li t1, 5");
 951              		.loc 1 76 5 is_stmt 1
 952              		.loc 1 76 25 is_stmt 0
 953              	#APP
 954              	# 76 "src/Threads_C_API_test.hpp" 1
  77              	    thread_dispatch();
 955              		li t1, 5
 956              	# 0 "" 2
 957              		.loc 1 77 5 is_stmt 1
 958              		.loc 1 77 20 is_stmt 0
 959              	#NO_APP
 960 0630 97000000 		call	_Z15thread_dispatchv@plt
 960      E7800000 
 961              	.LVL119:
GAS LISTING /tmp/ccXYaIow.s 			page 24


  78:src/Threads_C_API_test.hpp **** 
  79:src/Threads_C_API_test.hpp ****     uint64 result = fibonacci(16);
 962              		.loc 1 79 5 is_stmt 1
 963              		.loc 1 79 30 is_stmt 0
 964 0638 13050001 		li	a0,16
 965 063c 97000000 		call	_Z9fibonaccim
 965      E7800000 
 966              	.LVL120:
 967 0644 13090500 		mv	s2,a0
 968              	.LVL121:
  80:src/Threads_C_API_test.hpp ****    printString("D: fibonaci="); printInt(result); printString("\n");
 969              		.loc 1 80 4 is_stmt 1
 970              		.loc 1 80 15 is_stmt 0
 971 0648 17050000 		lla	a0,.LC12
 971      13050500 
 972              	.LVL122:
 973 0650 97000000 		call	_Z11printStringPKc@plt
 973      E7800000 
 974              	.LVL123:
 975              		.loc 1 80 33 is_stmt 1
 976              		.loc 1 80 41 is_stmt 0
 977 0658 13060000 		li	a2,0
 978 065c 9305A000 		li	a1,10
 979 0660 1B050900 		sext.w	a0,s2
 980 0664 97000000 		call	_Z8printIntiii@plt
 980      E7800000 
 981              	.LVL124:
 982              		.loc 1 80 51 is_stmt 1
 983              		.loc 1 80 62 is_stmt 0
 984 066c 17050000 		lla	a0,.LC1
 984      13050500 
 985 0674 97000000 		call	_Z11printStringPKc@plt
 985      E7800000 
 986              	.LVL125:
 987 067c 6F000004 		j	.L57
 988              	.L60:
  81:src/Threads_C_API_test.hpp **** 
  82:src/Threads_C_API_test.hpp ****     for (; i < 16; i++) {
  83:src/Threads_C_API_test.hpp ****        printString("D: i="); printInt(i); printString("\n");
 989              		.loc 1 83 8 is_stmt 1 discriminator 1
 990              		.loc 1 83 19 is_stmt 0 discriminator 1
 991 0680 17050000 		lla	a0,.LC10
 991      13050500 
 992 0688 97000000 		call	_Z11printStringPKc@plt
 992      E7800000 
 993              	.LVL126:
 994              		.loc 1 83 30 is_stmt 1 discriminator 1
 995              		.loc 1 83 38 is_stmt 0 discriminator 1
 996 0690 13060000 		li	a2,0
 997 0694 9305A000 		li	a1,10
 998 0698 13850400 		mv	a0,s1
 999 069c 97000000 		call	_Z8printIntiii@plt
 999      E7800000 
 1000              	.LVL127:
 1001              		.loc 1 83 43 is_stmt 1 discriminator 1
 1002              		.loc 1 83 54 is_stmt 0 discriminator 1
 1003 06a4 17050000 		lla	a0,.LC1
GAS LISTING /tmp/ccXYaIow.s 			page 25


 1003      13050500 
 1004 06ac 97000000 		call	_Z11printStringPKc@plt
 1004      E7800000 
 1005              	.LVL128:
  82:src/Threads_C_API_test.hpp ****        printString("D: i="); printInt(i); printString("\n");
 1006              		.loc 1 82 5 is_stmt 1 discriminator 1
 1007 06b4 9B841400 		addiw	s1,s1,1
 1008              	.LVL129:
 1009 06b8 93F4F40F 		andi	s1,s1,0xff
 1010              	.LVL130:
 1011              	.L57:
  82:src/Threads_C_API_test.hpp ****        printString("D: i="); printInt(i); printString("\n");
 1012              		.loc 1 82 5 discriminator 2
  82:src/Threads_C_API_test.hpp ****        printString("D: i="); printInt(i); printString("\n");
 1013              		.loc 1 82 14 discriminator 2
 1014 06bc 9307F000 		li	a5,15
 1015 06c0 E3F097FC 		bleu	s1,a5,.L60
  84:src/Threads_C_API_test.hpp ****     }
  85:src/Threads_C_API_test.hpp **** 
  86:src/Threads_C_API_test.hpp ****    printString("D finished!\n");
 1016              		.loc 1 86 4
 1017              		.loc 1 86 15 is_stmt 0
 1018 06c4 17050000 		lla	a0,.LC13
 1018      13050500 
 1019 06cc 97000000 		call	_Z11printStringPKc@plt
 1019      E7800000 
 1020              	.LVL131:
  87:src/Threads_C_API_test.hpp ****     finishedD = true;
 1021              		.loc 1 87 5 is_stmt 1
 1022              		.loc 1 87 15 is_stmt 0
 1023 06d4 93071000 		li	a5,1
 1024 06d8 17070000 		sb	a5,.LANCHOR0+9,a4
 1024      2300F700 
  88:src/Threads_C_API_test.hpp ****     thread_dispatch();
 1025              		.loc 1 88 5 is_stmt 1
 1026              		.loc 1 88 20 is_stmt 0
 1027 06e0 97000000 		call	_Z15thread_dispatchv@plt
 1027      E7800000 
 1028              	.LVL132:
  89:src/Threads_C_API_test.hpp **** }
 1029              		.loc 1 89 1
 1030 06e8 83308101 		ld	ra,24(sp)
 1031              		.cfi_restore 1
 1032 06ec 03340101 		ld	s0,16(sp)
 1033              		.cfi_restore 8
 1034              		.cfi_def_cfa 2, 32
 1035 06f0 83348100 		ld	s1,8(sp)
 1036              		.cfi_restore 9
 1037              	.LVL133:
 1038 06f4 03390100 		ld	s2,0(sp)
 1039              		.cfi_restore 18
 1040              	.LVL134:
 1041 06f8 13010102 		addi	sp,sp,32
 1042              		.cfi_def_cfa_offset 0
 1043 06fc 67800000 		jr	ra
 1044              		.cfi_endproc
 1045              	.LFE30:
GAS LISTING /tmp/ccXYaIow.s 			page 26


 1047              		.section	.rodata.str1.8
 1048 00ad 000000   		.align	3
 1049              	.LC14:
 1050 00b0 54687265 		.string	"ThreadA created\n"
 1050      61644120 
 1050      63726561 
 1050      7465640A 
 1050      00
 1051 00c1 00000000 		.align	3
 1051      000000
 1052              	.LC15:
 1053 00c8 54687265 		.string	"ThreadB created\n"
 1053      61644220 
 1053      63726561 
 1053      7465640A 
 1053      00
 1054 00d9 00000000 		.align	3
 1054      000000
 1055              	.LC16:
 1056 00e0 54687265 		.string	"ThreadC created\n"
 1056      61644320 
 1056      63726561 
 1056      7465640A 
 1056      00
 1057 00f1 00000000 		.align	3
 1057      000000
 1058              	.LC17:
 1059 00f8 54687265 		.string	"ThreadD created\n"
 1059      61644420 
 1059      63726561 
 1059      7465640A 
 1059      00
 1060              		.text
 1061              		.align	2
 1062              		.globl	_Z18Threads_C_API_testv
 1064              	_Z18Threads_C_API_testv:
 1065              	.LFB31:
  90:src/Threads_C_API_test.hpp **** 
  91:src/Threads_C_API_test.hpp **** 
  92:src/Threads_C_API_test.hpp **** void Threads_C_API_test() {
 1066              		.loc 1 92 27 is_stmt 1
 1067              		.cfi_startproc
 1068 0700 130101FD 		addi	sp,sp,-48
 1069              		.cfi_def_cfa_offset 48
 1070 0704 23341102 		sd	ra,40(sp)
 1071 0708 23308102 		sd	s0,32(sp)
 1072              		.cfi_offset 1, -8
 1073              		.cfi_offset 8, -16
 1074 070c 13040103 		addi	s0,sp,48
 1075              		.cfi_def_cfa 8, 0
  93:src/Threads_C_API_test.hpp ****     thread_t threads[4];
 1076              		.loc 1 93 5
  94:src/Threads_C_API_test.hpp **** //    printString("\nthr0: ");
  95:src/Threads_C_API_test.hpp **** //    printInt((uint64)&threads[0], 16, 0);
  96:src/Threads_C_API_test.hpp ****     thread_create(&threads[0], workerBodyA, nullptr);
 1077              		.loc 1 96 5
 1078              		.loc 1 96 18 is_stmt 0
GAS LISTING /tmp/ccXYaIow.s 			page 27


 1079 0710 13060000 		li	a2,0
 1080 0714 97050000 		lla	a1,_Z11workerBodyAPv
 1080      93850500 
 1081 071c 130504FD 		addi	a0,s0,-48
 1082 0720 97000000 		call	_Z13thread_createPP3TCBPFvPvES2_@plt
 1082      E7800000 
 1083              	.LVL135:
  97:src/Threads_C_API_test.hpp ****     printString("ThreadA created\n");
 1084              		.loc 1 97 5 is_stmt 1
 1085              		.loc 1 97 16 is_stmt 0
 1086 0728 17050000 		lla	a0,.LC14
 1086      13050500 
 1087 0730 97000000 		call	_Z11printStringPKc@plt
 1087      E7800000 
 1088              	.LVL136:
  98:src/Threads_C_API_test.hpp **** 
  99:src/Threads_C_API_test.hpp **** //    printString("\nthr0: ");
 100:src/Threads_C_API_test.hpp **** //    printInt((uint64)&threads[1], 16, 0);
 101:src/Threads_C_API_test.hpp ****     thread_create(&threads[1], workerBodyB, nullptr);
 1089              		.loc 1 101 5 is_stmt 1
 1090              		.loc 1 101 18 is_stmt 0
 1091 0738 13060000 		li	a2,0
 1092 073c 97050000 		lla	a1,_Z11workerBodyBPv
 1092      93850500 
 1093 0744 130584FD 		addi	a0,s0,-40
 1094 0748 97000000 		call	_Z13thread_createPP3TCBPFvPvES2_@plt
 1094      E7800000 
 1095              	.LVL137:
 102:src/Threads_C_API_test.hpp ****     printString("ThreadB created\n");
 1096              		.loc 1 102 5 is_stmt 1
 1097              		.loc 1 102 16 is_stmt 0
 1098 0750 17050000 		lla	a0,.LC15
 1098      13050500 
 1099 0758 97000000 		call	_Z11printStringPKc@plt
 1099      E7800000 
 1100              	.LVL138:
 103:src/Threads_C_API_test.hpp **** 
 104:src/Threads_C_API_test.hpp **** //    printString("\nthr0: ");
 105:src/Threads_C_API_test.hpp **** //    printInt((uint64)&threads[2], 16, 0);
 106:src/Threads_C_API_test.hpp ****     thread_create(&threads[2], workerBodyC, nullptr);
 1101              		.loc 1 106 5 is_stmt 1
 1102              		.loc 1 106 18 is_stmt 0
 1103 0760 13060000 		li	a2,0
 1104 0764 97050000 		lla	a1,_Z11workerBodyCPv
 1104      93850500 
 1105 076c 130504FE 		addi	a0,s0,-32
 1106 0770 97000000 		call	_Z13thread_createPP3TCBPFvPvES2_@plt
 1106      E7800000 
 1107              	.LVL139:
 107:src/Threads_C_API_test.hpp ****     printString("ThreadC created\n");
 1108              		.loc 1 107 5 is_stmt 1
 1109              		.loc 1 107 16 is_stmt 0
 1110 0778 17050000 		lla	a0,.LC16
 1110      13050500 
 1111 0780 97000000 		call	_Z11printStringPKc@plt
 1111      E7800000 
 1112              	.LVL140:
GAS LISTING /tmp/ccXYaIow.s 			page 28


 108:src/Threads_C_API_test.hpp **** 
 109:src/Threads_C_API_test.hpp **** //    printString("\nthr0: ");
 110:src/Threads_C_API_test.hpp **** //    printInt((uint64)&threads[3], 16, 0);
 111:src/Threads_C_API_test.hpp ****     thread_create(&threads[3], workerBodyD, nullptr);
 1113              		.loc 1 111 5 is_stmt 1
 1114              		.loc 1 111 18 is_stmt 0
 1115 0788 13060000 		li	a2,0
 1116 078c 97050000 		lla	a1,_Z11workerBodyDPv
 1116      93850500 
 1117 0794 130584FE 		addi	a0,s0,-24
 1118 0798 97000000 		call	_Z13thread_createPP3TCBPFvPvES2_@plt
 1118      E7800000 
 1119              	.LVL141:
 112:src/Threads_C_API_test.hpp ****     printString("ThreadD created\n");
 1120              		.loc 1 112 5 is_stmt 1
 1121              		.loc 1 112 16 is_stmt 0
 1122 07a0 17050000 		lla	a0,.LC17
 1122      13050500 
 1123 07a8 97000000 		call	_Z11printStringPKc@plt
 1123      E7800000 
 1124              	.LVL142:
 1125 07b0 6F00C000 		j	.L64
 1126              	.L62:
 113:src/Threads_C_API_test.hpp **** 
 114:src/Threads_C_API_test.hpp ****     while (!(finishedA && finishedB && finishedC && finishedD)) {
 115:src/Threads_C_API_test.hpp ****         thread_dispatch();
 1127              		.loc 1 115 9 is_stmt 1
 1128              		.loc 1 115 24 is_stmt 0
 1129 07b4 97000000 		call	_Z15thread_dispatchv@plt
 1129      E7800000 
 1130              	.LVL143:
 1131              	.L64:
 114:src/Threads_C_API_test.hpp ****         thread_dispatch();
 1132              		.loc 1 114 5 is_stmt 1
 114:src/Threads_C_API_test.hpp ****         thread_dispatch();
 1133              		.loc 1 114 12
 1134 07bc 97070000 		lbu	a5,.LANCHOR0
 1134      83C70700 
 1135 07c4 E38807FE 		beqz	a5,.L62
 114:src/Threads_C_API_test.hpp ****         thread_dispatch();
 1136              		.loc 1 114 24 is_stmt 0 discriminator 1
 1137 07c8 97070000 		lbu	a5,.LANCHOR0+1
 1137      83C70700 
 1138 07d0 E38207FE 		beqz	a5,.L62
 114:src/Threads_C_API_test.hpp ****         thread_dispatch();
 1139              		.loc 1 114 37 discriminator 2
 1140 07d4 97070000 		lbu	a5,.LANCHOR0+8
 1140      83C70700 
 1141 07dc E38C07FC 		beqz	a5,.L62
 114:src/Threads_C_API_test.hpp ****         thread_dispatch();
 1142              		.loc 1 114 12 discriminator 3
 1143 07e0 97070000 		lbu	a5,.LANCHOR0+9
 1143      83C70700 
 1144 07e8 E38607FC 		beqz	a5,.L62
 116:src/Threads_C_API_test.hpp ****     }
 117:src/Threads_C_API_test.hpp **** 
 118:src/Threads_C_API_test.hpp **** }
GAS LISTING /tmp/ccXYaIow.s 			page 29


 1145              		.loc 1 118 1
 1146 07ec 83308102 		ld	ra,40(sp)
 1147              		.cfi_restore 1
 1148 07f0 03340102 		ld	s0,32(sp)
 1149              		.cfi_restore 8
 1150              		.cfi_def_cfa 2, 48
 1151 07f4 13010103 		addi	sp,sp,48
 1152              		.cfi_def_cfa_offset 0
 1153 07f8 67800000 		jr	ra
 1154              		.cfi_endproc
 1155              	.LFE31:
 1157              		.section	.rodata.str1.8
 1158 0109 00000000 		.align	3
 1158      000000
 1159              	.LC18:
 1160 0110 556E6573 		.string	"Unesite broj proizvodjaca?\n"
 1160      69746520 
 1160      62726F6A 
 1160      2070726F 
 1160      697A766F 
 1161 012c 00000000 		.align	3
 1162              	.LC19:
 1163 0130 556E6573 		.string	"Unesite velicinu bafera?\n"
 1163      69746520 
 1163      76656C69 
 1163      63696E75 
 1163      20626166 
 1164 014a 00000000 		.align	3
 1164      0000
 1165              	.LC20:
 1166 0150 42726F6A 		.string	"Broj proizvodjaca "
 1166      2070726F 
 1166      697A766F 
 1166      646A6163 
 1166      612000
 1167 0163 00000000 		.align	3
 1167      00
 1168              	.LC21:
 1169 0168 20692076 		.string	" i velicina bafera "
 1169      656C6963 
 1169      696E6120 
 1169      62616665 
 1169      72612000 
 1170 017c 00000000 		.align	3
 1171              	.LC22:
 1172 0180 2E0A00   		.string	".\n"
 1173 0183 00000000 		.align	3
 1173      00
 1174              	.LC23:
 1175 0188 42726F6A 		.string	"Broj proizvodjaca ne sme biti manji od velicine bafera!\n"
 1175      2070726F 
 1175      697A766F 
 1175      646A6163 
 1175      61206E65 
 1176 01c1 00000000 		.align	3
 1176      000000
 1177              	.LC24:
GAS LISTING /tmp/ccXYaIow.s 			page 30


 1178 01c8 42726F6A 		.string	"Broj proizvodjaca mora biti veci od nula!\n"
 1178      2070726F 
 1178      697A766F 
 1178      646A6163 
 1178      61206D6F 
 1179              		.text
 1180              		.align	2
 1181              		.globl	_Z22producerConsumer_C_APIv
 1183              	_Z22producerConsumer_C_APIv:
 1184              	.LFB35:
  85:src/ConsumerProducer_C_API_test.h **** 
  86:src/ConsumerProducer_C_API_test.h **** void producerConsumer_C_API() {
 1185              		.loc 2 86 31 is_stmt 1
 1186              		.cfi_startproc
 1187              		.cfi_personality 0x9b,DW.ref.__gxx_personality_v0
 1188              		.cfi_lsda 0x1b,.LLSDA35
 1189 07fc 130101F9 		addi	sp,sp,-112
 1190              		.cfi_def_cfa_offset 112
 1191 0800 23341106 		sd	ra,104(sp)
 1192 0804 23308106 		sd	s0,96(sp)
 1193 0808 233C9104 		sd	s1,88(sp)
 1194 080c 23382105 		sd	s2,80(sp)
 1195 0810 23343105 		sd	s3,72(sp)
 1196 0814 23304105 		sd	s4,64(sp)
 1197 0818 233C5103 		sd	s5,56(sp)
 1198 081c 23386103 		sd	s6,48(sp)
 1199              		.cfi_offset 1, -8
 1200              		.cfi_offset 8, -16
 1201              		.cfi_offset 9, -24
 1202              		.cfi_offset 18, -32
 1203              		.cfi_offset 19, -40
 1204              		.cfi_offset 20, -48
 1205              		.cfi_offset 21, -56
 1206              		.cfi_offset 22, -64
 1207 0820 13040107 		addi	s0,sp,112
 1208              		.cfi_def_cfa 8, 0
  87:src/ConsumerProducer_C_API_test.h ****     char input[30];
  88:src/ConsumerProducer_C_API_test.h ****     int n, threadNum;
  89:src/ConsumerProducer_C_API_test.h **** 
  90:src/ConsumerProducer_C_API_test.h ****     printString("Unesite broj proizvodjaca?\n");
  91:src/ConsumerProducer_C_API_test.h ****     getString(input, 30);
  92:src/ConsumerProducer_C_API_test.h ****     threadNum = stringToInt(input);
  93:src/ConsumerProducer_C_API_test.h **** 
  94:src/ConsumerProducer_C_API_test.h ****     printString("Unesite velicinu bafera?\n");
  95:src/ConsumerProducer_C_API_test.h ****     getString(input, 30);
  96:src/ConsumerProducer_C_API_test.h ****     n = stringToInt(input);
  97:src/ConsumerProducer_C_API_test.h **** 
  98:src/ConsumerProducer_C_API_test.h ****     printString("Broj proizvodjaca "); printInt(threadNum);
  99:src/ConsumerProducer_C_API_test.h ****     printString(" i velicina bafera "); printInt(n);
 100:src/ConsumerProducer_C_API_test.h ****     printString(".\n");
 101:src/ConsumerProducer_C_API_test.h **** 
 102:src/ConsumerProducer_C_API_test.h ****     if(threadNum > n) {
 103:src/ConsumerProducer_C_API_test.h ****         printString("Broj proizvodjaca ne sme biti manji od velicine bafera!\n");
 104:src/ConsumerProducer_C_API_test.h ****         return;
 105:src/ConsumerProducer_C_API_test.h ****     } else if (threadNum < 1) {
 106:src/ConsumerProducer_C_API_test.h ****         printString("Broj proizvodjaca mora biti veci od nula!\n");
 107:src/ConsumerProducer_C_API_test.h ****         return;
GAS LISTING /tmp/ccXYaIow.s 			page 31


 108:src/ConsumerProducer_C_API_test.h ****     }
 109:src/ConsumerProducer_C_API_test.h **** 
 110:src/ConsumerProducer_C_API_test.h ****     Buffer *buffer = new Buffer(n);
 111:src/ConsumerProducer_C_API_test.h **** 
 112:src/ConsumerProducer_C_API_test.h ****     sem_open(&waitForAll, 0);
 113:src/ConsumerProducer_C_API_test.h **** 
 114:src/ConsumerProducer_C_API_test.h ****     thread_t threads[threadNum];
 115:src/ConsumerProducer_C_API_test.h ****     thread_t consumerThread;
 116:src/ConsumerProducer_C_API_test.h **** 
 117:src/ConsumerProducer_C_API_test.h ****     struct thread_data data[threadNum + 1];
 118:src/ConsumerProducer_C_API_test.h **** 
 119:src/ConsumerProducer_C_API_test.h ****     data[threadNum].id = threadNum;
 120:src/ConsumerProducer_C_API_test.h ****     data[threadNum].buffer = buffer;
 121:src/ConsumerProducer_C_API_test.h ****     data[threadNum].wait = waitForAll;
 122:src/ConsumerProducer_C_API_test.h ****     thread_create(&consumerThread, consumer, data + threadNum);
 123:src/ConsumerProducer_C_API_test.h **** 
 124:src/ConsumerProducer_C_API_test.h ****     for (int i = 0; i < threadNum; i++) {
 125:src/ConsumerProducer_C_API_test.h ****         data[i].id = i;
 126:src/ConsumerProducer_C_API_test.h ****         data[i].buffer = buffer;
 127:src/ConsumerProducer_C_API_test.h ****         data[i].wait = waitForAll;
 128:src/ConsumerProducer_C_API_test.h **** 
 129:src/ConsumerProducer_C_API_test.h ****         thread_create(threads + i,
 130:src/ConsumerProducer_C_API_test.h ****                       i > 0 ? producer : producerKeyboard,
 131:src/ConsumerProducer_C_API_test.h ****                       data + i);
 132:src/ConsumerProducer_C_API_test.h ****     }
 133:src/ConsumerProducer_C_API_test.h **** 
 134:src/ConsumerProducer_C_API_test.h ****     thread_dispatch();
 135:src/ConsumerProducer_C_API_test.h **** 
 136:src/ConsumerProducer_C_API_test.h ****     for (int i = 0; i <= threadNum; i++) {
 137:src/ConsumerProducer_C_API_test.h ****         sem_wait(waitForAll);
 138:src/ConsumerProducer_C_API_test.h ****     }
 139:src/ConsumerProducer_C_API_test.h **** 
 140:src/ConsumerProducer_C_API_test.h ****     sem_close(waitForAll);
 141:src/ConsumerProducer_C_API_test.h **** 
 142:src/ConsumerProducer_C_API_test.h ****     delete buffer;
 1209              		.loc 2 142 18 is_stmt 0
 1210 0824 130B0100 		mv	s6,sp
  87:src/ConsumerProducer_C_API_test.h ****     char input[30];
 1211              		.loc 2 87 5 is_stmt 1
  88:src/ConsumerProducer_C_API_test.h **** 
 1212              		.loc 2 88 5
  90:src/ConsumerProducer_C_API_test.h ****     getString(input, 30);
 1213              		.loc 2 90 5
  90:src/ConsumerProducer_C_API_test.h ****     getString(input, 30);
 1214              		.loc 2 90 16 is_stmt 0
 1215 0828 17050000 		lla	a0,.LC18
 1215      13050500 
 1216              	.LEHB0:
 1217 0830 97000000 		call	_Z11printStringPKc@plt
 1217      E7800000 
 1218              	.LVL144:
  91:src/ConsumerProducer_C_API_test.h ****     threadNum = stringToInt(input);
 1219              		.loc 2 91 5 is_stmt 1
  91:src/ConsumerProducer_C_API_test.h ****     threadNum = stringToInt(input);
 1220              		.loc 2 91 14 is_stmt 0
 1221 0838 9305E001 		li	a1,30
 1222 083c 930404FA 		addi	s1,s0,-96
GAS LISTING /tmp/ccXYaIow.s 			page 32


 1223 0840 13850400 		mv	a0,s1
 1224 0844 97000000 		call	_Z9getStringPci@plt
 1224      E7800000 
 1225              	.LVL145:
  92:src/ConsumerProducer_C_API_test.h **** 
 1226              		.loc 2 92 5 is_stmt 1
  92:src/ConsumerProducer_C_API_test.h **** 
 1227              		.loc 2 92 28 is_stmt 0
 1228 084c 13850400 		mv	a0,s1
 1229 0850 97000000 		call	_Z11stringToIntPKc@plt
 1229      E7800000 
 1230              	.LVL146:
 1231 0858 13090500 		mv	s2,a0
 1232              	.LVL147:
  94:src/ConsumerProducer_C_API_test.h ****     getString(input, 30);
 1233              		.loc 2 94 5 is_stmt 1
  94:src/ConsumerProducer_C_API_test.h ****     getString(input, 30);
 1234              		.loc 2 94 16 is_stmt 0
 1235 085c 17050000 		lla	a0,.LC19
 1235      13050500 
 1236 0864 97000000 		call	_Z11printStringPKc@plt
 1236      E7800000 
 1237              	.LVL148:
  95:src/ConsumerProducer_C_API_test.h ****     n = stringToInt(input);
 1238              		.loc 2 95 5 is_stmt 1
  95:src/ConsumerProducer_C_API_test.h ****     n = stringToInt(input);
 1239              		.loc 2 95 14 is_stmt 0
 1240 086c 9305E001 		li	a1,30
 1241 0870 13850400 		mv	a0,s1
 1242 0874 97000000 		call	_Z9getStringPci@plt
 1242      E7800000 
 1243              	.LVL149:
  96:src/ConsumerProducer_C_API_test.h **** 
 1244              		.loc 2 96 5 is_stmt 1
  96:src/ConsumerProducer_C_API_test.h **** 
 1245              		.loc 2 96 20 is_stmt 0
 1246 087c 13850400 		mv	a0,s1
 1247 0880 97000000 		call	_Z11stringToIntPKc@plt
 1247      E7800000 
 1248              	.LVL150:
 1249 0888 93040500 		mv	s1,a0
 1250              	.LVL151:
  98:src/ConsumerProducer_C_API_test.h ****     printString(" i velicina bafera "); printInt(n);
 1251              		.loc 2 98 5 is_stmt 1
  98:src/ConsumerProducer_C_API_test.h ****     printString(" i velicina bafera "); printInt(n);
 1252              		.loc 2 98 16 is_stmt 0
 1253 088c 17050000 		lla	a0,.LC20
 1253      13050500 
 1254 0894 97000000 		call	_Z11printStringPKc@plt
 1254      E7800000 
 1255              	.LVL152:
  98:src/ConsumerProducer_C_API_test.h ****     printString(" i velicina bafera "); printInt(n);
 1256              		.loc 2 98 40 is_stmt 1
  98:src/ConsumerProducer_C_API_test.h ****     printString(" i velicina bafera "); printInt(n);
 1257              		.loc 2 98 48 is_stmt 0
 1258 089c 13060000 		li	a2,0
 1259 08a0 9305A000 		li	a1,10
GAS LISTING /tmp/ccXYaIow.s 			page 33


 1260 08a4 13050900 		mv	a0,s2
 1261 08a8 97000000 		call	_Z8printIntiii@plt
 1261      E7800000 
 1262              	.LVL153:
  99:src/ConsumerProducer_C_API_test.h ****     printString(".\n");
 1263              		.loc 2 99 5 is_stmt 1
  99:src/ConsumerProducer_C_API_test.h ****     printString(".\n");
 1264              		.loc 2 99 16 is_stmt 0
 1265 08b0 17050000 		lla	a0,.LC21
 1265      13050500 
 1266 08b8 97000000 		call	_Z11printStringPKc@plt
 1266      E7800000 
 1267              	.LVL154:
  99:src/ConsumerProducer_C_API_test.h ****     printString(".\n");
 1268              		.loc 2 99 41 is_stmt 1
  99:src/ConsumerProducer_C_API_test.h ****     printString(".\n");
 1269              		.loc 2 99 49 is_stmt 0
 1270 08c0 13060000 		li	a2,0
 1271 08c4 9305A000 		li	a1,10
 1272 08c8 13850400 		mv	a0,s1
 1273 08cc 97000000 		call	_Z8printIntiii@plt
 1273      E7800000 
 1274              	.LVL155:
 100:src/ConsumerProducer_C_API_test.h **** 
 1275              		.loc 2 100 5 is_stmt 1
 100:src/ConsumerProducer_C_API_test.h **** 
 1276              		.loc 2 100 16 is_stmt 0
 1277 08d4 17050000 		lla	a0,.LC22
 1277      13050500 
 1278 08dc 97000000 		call	_Z11printStringPKc@plt
 1278      E7800000 
 1279              	.LVL156:
 102:src/ConsumerProducer_C_API_test.h ****         printString("Broj proizvodjaca ne sme biti manji od velicine bafera!\n");
 1280              		.loc 2 102 5 is_stmt 1
 1281 08e4 63C42403 		bgt	s2,s1,.L81
 105:src/ConsumerProducer_C_API_test.h ****         printString("Broj proizvodjaca mora biti veci od nula!\n");
 1282              		.loc 2 105 12
 1283 08e8 635C2003 		blez	s2,.L82
 110:src/ConsumerProducer_C_API_test.h **** 
 1284              		.loc 2 110 5
 110:src/ConsumerProducer_C_API_test.h **** 
 1285              		.loc 2 110 34 is_stmt 0
 1286 08ec 13058003 		li	a0,56
 1287 08f0 97000000 		call	_Znwm@plt
 1287      E7800000 
 1288              	.LVL157:
 1289              	.LEHE0:
 1290 08f8 130A0500 		mv	s4,a0
 1291 08fc 93850400 		mv	a1,s1
 1292              	.LEHB1:
 1293 0900 97000000 		call	_ZN6BufferC1Ei@plt
 1293      E7800000 
 1294              	.LVL158:
 1295              	.LEHE1:
 1296 0908 6F000003 		j	.L83
 1297              	.L81:
 103:src/ConsumerProducer_C_API_test.h ****         return;
GAS LISTING /tmp/ccXYaIow.s 			page 34


 1298              		.loc 2 103 9 is_stmt 1
 103:src/ConsumerProducer_C_API_test.h ****         return;
 1299              		.loc 2 103 20 is_stmt 0
 1300 090c 17050000 		lla	a0,.LC23
 1300      13050500 
 1301              	.LEHB2:
 1302 0914 97000000 		call	_Z11printStringPKc@plt
 1302      E7800000 
 1303              	.LVL159:
 104:src/ConsumerProducer_C_API_test.h ****     } else if (threadNum < 1) {
 1304              		.loc 2 104 9 is_stmt 1
 1305 091c 6F004001 		j	.L68
 1306              	.L82:
 106:src/ConsumerProducer_C_API_test.h ****         return;
 1307              		.loc 2 106 9
 106:src/ConsumerProducer_C_API_test.h ****         return;
 1308              		.loc 2 106 20 is_stmt 0
 1309 0920 17050000 		lla	a0,.LC24
 1309      13050500 
 1310 0928 97000000 		call	_Z11printStringPKc@plt
 1310      E7800000 
 1311              	.LVL160:
 107:src/ConsumerProducer_C_API_test.h ****     }
 1312              		.loc 2 107 9 is_stmt 1
 1313              	.L68:
 1314 0930 13010B00 		mv	sp,s6
 1315 0934 6F000015 		j	.L66
 1316              	.L83:
 1317              	.LVL161:
 112:src/ConsumerProducer_C_API_test.h **** 
 1318              		.loc 2 112 5 discriminator 3
 112:src/ConsumerProducer_C_API_test.h **** 
 1319              		.loc 2 112 13 is_stmt 0 discriminator 3
 1320 0938 93050000 		li	a1,0
 1321 093c 17050000 		lla	a0,.LANCHOR0+16
 1321      13050500 
 1322 0944 97000000 		call	_Z8sem_openPP4KSemj@plt
 1322      E7800000 
 1323              	.LVL162:
 114:src/ConsumerProducer_C_API_test.h ****     thread_t consumerThread;
 1324              		.loc 2 114 5 is_stmt 1 discriminator 3
 114:src/ConsumerProducer_C_API_test.h ****     thread_t consumerThread;
 1325              		.loc 2 114 14 is_stmt 0 discriminator 3
 1326 094c 93173900 		slli	a5,s2,3
 1327 0950 9387F700 		addi	a5,a5,15
 1328 0954 93F707FF 		andi	a5,a5,-16
 1329 0958 3301F140 		sub	sp,sp,a5
 1330 095c 930A0100 		mv	s5,sp
 1331              	.LVL163:
 115:src/ConsumerProducer_C_API_test.h **** 
 1332              		.loc 2 115 5 is_stmt 1 discriminator 3
 117:src/ConsumerProducer_C_API_test.h **** 
 1333              		.loc 2 117 5 discriminator 3
 117:src/ConsumerProducer_C_API_test.h **** 
 1334              		.loc 2 117 39 is_stmt 0 discriminator 3
 1335 0960 1B071900 		addiw	a4,s2,1
 1336              	.LVL164:
GAS LISTING /tmp/ccXYaIow.s 			page 35


 117:src/ConsumerProducer_C_API_test.h **** 
 1337              		.loc 2 117 24 discriminator 3
 1338 0964 93171700 		slli	a5,a4,1
 1339 0968 B387E700 		add	a5,a5,a4
 1340 096c 93973700 		slli	a5,a5,3
 1341 0970 9387F700 		addi	a5,a5,15
 1342 0974 93F707FF 		andi	a5,a5,-16
 1343 0978 3301F140 		sub	sp,sp,a5
 1344              	.LVL165:
 1345 097c 93090100 		mv	s3,sp
 1346              	.LVL166:
 119:src/ConsumerProducer_C_API_test.h ****     data[threadNum].buffer = buffer;
 1347              		.loc 2 119 5 is_stmt 1 discriminator 3
 119:src/ConsumerProducer_C_API_test.h ****     data[threadNum].buffer = buffer;
 1348              		.loc 2 119 24 is_stmt 0 discriminator 3
 1349 0980 13161900 		slli	a2,s2,1
 1350 0984 B3072601 		add	a5,a2,s2
 1351 0988 93973700 		slli	a5,a5,3
 1352 098c B387F900 		add	a5,s3,a5
 1353 0990 23A02701 		sw	s2,0(a5)
 120:src/ConsumerProducer_C_API_test.h ****     data[threadNum].wait = waitForAll;
 1354              		.loc 2 120 5 is_stmt 1 discriminator 3
 120:src/ConsumerProducer_C_API_test.h ****     data[threadNum].wait = waitForAll;
 1355              		.loc 2 120 28 is_stmt 0 discriminator 3
 1356 0994 23B44701 		sd	s4,8(a5)
 121:src/ConsumerProducer_C_API_test.h ****     thread_create(&consumerThread, consumer, data + threadNum);
 1357              		.loc 2 121 5 is_stmt 1 discriminator 3
 121:src/ConsumerProducer_C_API_test.h ****     thread_create(&consumerThread, consumer, data + threadNum);
 1358              		.loc 2 121 26 is_stmt 0 discriminator 3
 1359 0998 17070000 		ld	a4,.LANCHOR0+16
 1359      03370700 
 1360 09a0 23B8E700 		sd	a4,16(a5)
 122:src/ConsumerProducer_C_API_test.h **** 
 1361              		.loc 2 122 5 is_stmt 1 discriminator 3
 122:src/ConsumerProducer_C_API_test.h **** 
 1362              		.loc 2 122 18 is_stmt 0 discriminator 3
 1363 09a4 13860700 		mv	a2,a5
 1364 09a8 97050000 		lla	a1,_Z8consumerPv
 1364      93850500 
 1365 09b0 130584F9 		addi	a0,s0,-104
 1366 09b4 97000000 		call	_Z13thread_createPP3TCBPFvPvES2_@plt
 1366      E7800000 
 1367              	.LVL167:
 1368              	.LBB21:
 124:src/ConsumerProducer_C_API_test.h ****         data[i].id = i;
 1369              		.loc 2 124 14 discriminator 3
 1370 09bc 93040000 		li	s1,0
 1371              	.LVL168:
 1372 09c0 6F008002 		j	.L72
 1373              	.LVL169:
 1374              	.L78:
 129:src/ConsumerProducer_C_API_test.h ****                       i > 0 ? producer : producerKeyboard,
 1375              		.loc 2 129 22
 1376 09c4 97050000 		lla	a1,_Z16producerKeyboardPv
 1376      93850500 
 1377              	.L71:
 131:src/ConsumerProducer_C_API_test.h ****     }
GAS LISTING /tmp/ccXYaIow.s 			page 36


 1378              		.loc 2 131 28 discriminator 4
 1379 09cc 13961700 		slli	a2,a5,1
 1380 09d0 3306F600 		add	a2,a2,a5
 1381 09d4 13163600 		slli	a2,a2,3
 129:src/ConsumerProducer_C_API_test.h ****                       i > 0 ? producer : producerKeyboard,
 1382              		.loc 2 129 22 discriminator 4
 1383 09d8 3386C900 		add	a2,s3,a2
 1384 09dc 97000000 		call	_Z13thread_createPP3TCBPFvPvES2_@plt
 1384      E7800000 
 1385              	.LVL170:
 124:src/ConsumerProducer_C_API_test.h ****         data[i].id = i;
 1386              		.loc 2 124 5 is_stmt 1 discriminator 4
 1387 09e4 9B841400 		addiw	s1,s1,1
 1388              	.LVL171:
 1389              	.L72:
 124:src/ConsumerProducer_C_API_test.h ****         data[i].id = i;
 1390              		.loc 2 124 23 discriminator 1
 1391 09e8 63D22405 		bge	s1,s2,.L70
 125:src/ConsumerProducer_C_API_test.h ****         data[i].buffer = buffer;
 1392              		.loc 2 125 9
 125:src/ConsumerProducer_C_API_test.h ****         data[i].buffer = buffer;
 1393              		.loc 2 125 20 is_stmt 0
 1394 09ec 93971400 		slli	a5,s1,1
 1395 09f0 B3879700 		add	a5,a5,s1
 1396 09f4 93973700 		slli	a5,a5,3
 1397 09f8 B387F900 		add	a5,s3,a5
 1398 09fc 23A09700 		sw	s1,0(a5)
 126:src/ConsumerProducer_C_API_test.h ****         data[i].wait = waitForAll;
 1399              		.loc 2 126 9 is_stmt 1
 126:src/ConsumerProducer_C_API_test.h ****         data[i].wait = waitForAll;
 1400              		.loc 2 126 24 is_stmt 0
 1401 0a00 23B44701 		sd	s4,8(a5)
 127:src/ConsumerProducer_C_API_test.h **** 
 1402              		.loc 2 127 9 is_stmt 1
 127:src/ConsumerProducer_C_API_test.h **** 
 1403              		.loc 2 127 22 is_stmt 0
 1404 0a04 17070000 		ld	a4,.LANCHOR0+16
 1404      03370700 
 1405 0a0c 23B8E700 		sd	a4,16(a5)
 129:src/ConsumerProducer_C_API_test.h ****                       i > 0 ? producer : producerKeyboard,
 1406              		.loc 2 129 9 is_stmt 1
 129:src/ConsumerProducer_C_API_test.h ****                       i > 0 ? producer : producerKeyboard,
 1407              		.loc 2 129 33 is_stmt 0
 1408 0a10 93870400 		mv	a5,s1
 129:src/ConsumerProducer_C_API_test.h ****                       i > 0 ? producer : producerKeyboard,
 1409              		.loc 2 129 31
 1410 0a14 13953400 		slli	a0,s1,3
 129:src/ConsumerProducer_C_API_test.h ****                       i > 0 ? producer : producerKeyboard,
 1411              		.loc 2 129 22
 1412 0a18 3385AA00 		add	a0,s5,a0
 1413 0a1c E35490FA 		blez	s1,.L78
 1414 0a20 97050000 		lla	a1,_Z8producerPv
 1414      93850500 
 1415 0a28 6FF05FFA 		j	.L71
 1416              	.L70:
 1417              	.LBE21:
 134:src/ConsumerProducer_C_API_test.h **** 
GAS LISTING /tmp/ccXYaIow.s 			page 37


 1418              		.loc 2 134 5 is_stmt 1
 134:src/ConsumerProducer_C_API_test.h **** 
 1419              		.loc 2 134 20 is_stmt 0
 1420 0a2c 97000000 		call	_Z15thread_dispatchv@plt
 1420      E7800000 
 1421              	.LVL172:
 1422              	.LBB22:
 136:src/ConsumerProducer_C_API_test.h ****         sem_wait(waitForAll);
 1423              		.loc 2 136 14
 1424 0a34 93040000 		li	s1,0
 1425              	.LVL173:
 1426              	.L74:
 136:src/ConsumerProducer_C_API_test.h ****         sem_wait(waitForAll);
 1427              		.loc 2 136 23 is_stmt 1 discriminator 1
 1428 0a38 634E9900 		bgt	s1,s2,.L73
 137:src/ConsumerProducer_C_API_test.h ****     }
 1429              		.loc 2 137 9
 137:src/ConsumerProducer_C_API_test.h ****     }
 1430              		.loc 2 137 17 is_stmt 0
 1431 0a3c 17050000 		ld	a0,.LANCHOR0+16
 1431      03350500 
 1432 0a44 97000000 		call	_Z8sem_waitP4KSem@plt
 1432      E7800000 
 1433              	.LVL174:
 136:src/ConsumerProducer_C_API_test.h ****         sem_wait(waitForAll);
 1434              		.loc 2 136 5 is_stmt 1
 1435 0a4c 9B841400 		addiw	s1,s1,1
 1436              	.LVL175:
 1437 0a50 6FF09FFE 		j	.L74
 1438              	.LVL176:
 1439              	.L73:
 1440              	.LBE22:
 140:src/ConsumerProducer_C_API_test.h **** 
 1441              		.loc 2 140 5
 140:src/ConsumerProducer_C_API_test.h **** 
 1442              		.loc 2 140 14 is_stmt 0
 1443 0a54 17050000 		ld	a0,.LANCHOR0+16
 1443      03350500 
 1444 0a5c 97000000 		call	_Z9sem_closeP4KSem@plt
 1444      E7800000 
 1445              	.LVL177:
 1446              		.loc 2 142 5 is_stmt 1
 1447              		.loc 2 142 18 is_stmt 0
 1448 0a64 630E0A00 		beqz	s4,.L75
 1449              		.loc 2 142 12 discriminator 1
 1450 0a68 13050A00 		mv	a0,s4
 1451 0a6c 97000000 		call	_ZN6BufferD1Ev@plt
 1451      E7800000 
 1452              	.LVL178:
 1453 0a74 13050A00 		mv	a0,s4
 1454 0a78 97000000 		call	_ZdlPv@plt
 1454      E7800000 
 1455              	.LVL179:
 1456              	.L75:
 1457 0a80 13010B00 		mv	sp,s6
 1458              	.LVL180:
 1459              	.L66:
GAS LISTING /tmp/ccXYaIow.s 			page 38


 143:src/ConsumerProducer_C_API_test.h **** 
 144:src/ConsumerProducer_C_API_test.h **** }
 1460              		.loc 2 144 1
 1461 0a84 130104F9 		addi	sp,s0,-112
 1462              		.cfi_remember_state
 1463              		.cfi_def_cfa 2, 112
 1464 0a88 83308106 		ld	ra,104(sp)
 1465              		.cfi_restore 1
 1466 0a8c 03340106 		ld	s0,96(sp)
 1467              		.cfi_restore 8
 1468 0a90 83348105 		ld	s1,88(sp)
 1469              		.cfi_restore 9
 1470 0a94 03390105 		ld	s2,80(sp)
 1471              		.cfi_restore 18
 1472              	.LVL181:
 1473 0a98 83398104 		ld	s3,72(sp)
 1474              		.cfi_restore 19
 1475 0a9c 033A0104 		ld	s4,64(sp)
 1476              		.cfi_restore 20
 1477 0aa0 833A8103 		ld	s5,56(sp)
 1478              		.cfi_restore 21
 1479 0aa4 033B0103 		ld	s6,48(sp)
 1480              		.cfi_restore 22
 1481 0aa8 13010107 		addi	sp,sp,112
 1482              		.cfi_def_cfa_offset 0
 1483 0aac 67800000 		jr	ra
 1484              	.LVL182:
 1485              	.L79:
 1486              		.cfi_restore_state
 1487 0ab0 93040500 		mv	s1,a0
 1488              	.LVL183:
 110:src/ConsumerProducer_C_API_test.h **** 
 1489              		.loc 2 110 34
 1490 0ab4 13050A00 		mv	a0,s4
 1491 0ab8 97000000 		call	_ZdlPv@plt
 1491      E7800000 
 1492              	.LVL184:
 1493 0ac0 13850400 		mv	a0,s1
 1494 0ac4 97000000 		call	_Unwind_Resume@plt
 1494      E7800000 
 1495              	.LVL185:
 1496              	.LEHE2:
 1497              		.cfi_endproc
 1498              	.LFE35:
 1499              		.globl	__gxx_personality_v0
 1500              		.section	.gcc_except_table,"a",@progbits
 1501              	.LLSDA35:
 1502 0000 FF       		.byte	0xff
 1503 0001 FF       		.byte	0xff
 1504 0002 03       		.byte	0x3
 1505 0003 27       		.byte	0x27
 1506 0004 00000000 		.4byte	.LEHB0-.LFB35
 1507 0008 00000000 		.4byte	.LEHE0-.LEHB0
 1508 000c 00000000 		.4byte	0
 1509 0010 00       		.byte	0
 1510 0011 00000000 		.4byte	.LEHB1-.LFB35
 1511 0015 00000000 		.4byte	.LEHE1-.LEHB1
GAS LISTING /tmp/ccXYaIow.s 			page 39


 1512 0019 00000000 		.4byte	.L79-.LFB35
 1513 001d 00       		.byte	0
 1514 001e 00000000 		.4byte	.LEHB2-.LFB35
 1515 0022 00000000 		.4byte	.LEHE2-.LEHB2
 1516 0026 00000000 		.4byte	0
 1517 002a 00       		.byte	0
 1518              		.text
 1520              		.align	2
 1521              		.globl	_Z8userMainv
 1523              	_Z8userMainv:
 1524              	.LFB36:
 1525              		.file 3 "src/userMain.cpp"
   1:src/userMain.cpp **** #include "Threads_C_API_test.hpp" // zadatak 2, niti C API i sinhrona promena konteksta
   2:src/userMain.cpp **** #include "Threads_CPP_API_test.hpp" // zadatak 2., niti CPP API i sinhrona promena konteksta
   3:src/userMain.cpp **** 
   4:src/userMain.cpp **** #include "ConsumerProducer_C_API_test.h" // zadatak 3., kompletan C API sa semaforima, sinhrona pro
   5:src/userMain.cpp **** //#include "../test/ConsumerProducer_CPP_Sync_API_test.hpp" // zadatak 3., kompletan CPP API sa sem
   6:src/userMain.cpp **** 
   7:src/userMain.cpp **** //#include "../test/ThreadSleep_C_API_test.hpp" // thread_sleep test C API
   8:src/userMain.cpp **** //#include "../test/ConsumerProducer_CPP_API_test.hpp" // zadatak 4. CPP API i asinhrona promena ko
   9:src/userMain.cpp **** 
  10:src/userMain.cpp **** void userMain() {
 1526              		.loc 3 10 17 is_stmt 1
 1527              		.cfi_startproc
 1528 0acc 130101FF 		addi	sp,sp,-16
 1529              		.cfi_def_cfa_offset 16
 1530 0ad0 23341100 		sd	ra,8(sp)
 1531 0ad4 23308100 		sd	s0,0(sp)
 1532              		.cfi_offset 1, -8
 1533              		.cfi_offset 8, -16
 1534 0ad8 13040101 		addi	s0,sp,16
 1535              		.cfi_def_cfa 8, 0
  11:src/userMain.cpp ****     Threads_C_API_test(); // zadatak 2., niti C API i sinhrona promena konteksta
 1536              		.loc 3 11 5
 1537              		.loc 3 11 23 is_stmt 0
 1538 0adc 97000000 		call	_Z18Threads_C_API_testv
 1538      E7800000 
 1539              	.LVL186:
  12:src/userMain.cpp ****     //Threads_CPP_API_test(); // zadatak 2., niti CPP API i sinhrona promena konteksta
  13:src/userMain.cpp **** 
  14:src/userMain.cpp ****     //producerConsumer_C_API(); // zadatak 3., kompletan C API sa semaforima, sinhrona promena kont
  15:src/userMain.cpp ****     //producerConsumer_CPP_Sync_API(); // zadatak 3., kompletan CPP API sa semaforima, sinhrona pro
  16:src/userMain.cpp **** 
  17:src/userMain.cpp ****     //testSleeping(); // thread_sleep test C API
  18:src/userMain.cpp ****    // ConsumerProducerCPP::testConsumerProducer(); // zadatak 4. CPP API i asinhrona promena kontek
  19:src/userMain.cpp **** 
  20:src/userMain.cpp **** }...
 1540              		.loc 3 20 1
 1541 0ae4 83308100 		ld	ra,8(sp)
 1542              		.cfi_restore 1
 1543 0ae8 03340100 		ld	s0,0(sp)
 1544              		.cfi_restore 8
 1545              		.cfi_def_cfa 2, 16
 1546 0aec 13010101 		addi	sp,sp,16
 1547              		.cfi_def_cfa_offset 0
 1548 0af0 67800000 		jr	ra
 1549              		.cfi_endproc
GAS LISTING /tmp/ccXYaIow.s 			page 40


 1550              	.LFE36:
 1552              		.globl	threadEnd
 1553              		.globl	waitForAll
 1554              		.globl	finishedD
 1555              		.globl	finishedC
 1556              		.globl	finishedB
 1557              		.globl	finishedA
 1558              		.bss
 1559              		.align	3
 1560              		.set	.LANCHOR0,. + 0
 1563              	finishedA:
 1564 0000 00       		.zero	1
 1567              	finishedB:
 1568 0001 00       		.zero	1
 1569 0002 0000     		.zero	2
 1572              	threadEnd:
 1573 0004 00000000 		.zero	4
 1576              	finishedC:
 1577 0008 00       		.zero	1
 1580              	finishedD:
 1581 0009 00       		.zero	1
 1582 000a 00000000 		.zero	6
 1582      0000
 1585              	waitForAll:
 1586 0010 00000000 		.zero	8
 1586      00000000 
 1587              		.text
 1588              	.Letext0:
 1589              		.file 4 "src/../h/../lib/hw.h"
 1590              		.file 5 "src/../h/../h/../h/list.hpp"
 1591              		.file 6 "src/../h/../h/tcb.hpp"
 1592              		.file 7 "src/../h/../h/kSem.hpp"
 1593              		.file 8 "src/buffer.hpp"
 1594              		.file 9 "src/../h/syscall_c.h"
 1595              		.file 10 "src/printing.hpp"
 1596              		.file 11 "src/../lib/console.h"
 6156              		.align	3
 6159              	DW.ref.__gxx_personality_v0:
 6160 0000 00000000 		.dword	__gxx_personality_v0
 6160      00000000 
 6161              		.ident	"GCC: (Ubuntu 9.4.0-1ubuntu1~20.04) 9.4.0"
 6162              		.section	.note.GNU-stack,"",@progbits
GAS LISTING /tmp/ccXYaIow.s 			page 41

