GAS LISTING /tmp/ccGYy57q.s 			page 1


   1              		.file	"userMain.cpp"
   2              		.option pic
   3              		.option norelax
   4              		.text
   5              	.Ltext0:
   6              		.section	.rodata.str1.8,"aMS",@progbits,1
   7              		.align	3
   8              	.LC0:
   9 0000 413A2069 		.string	"A: i="
   9      3D00
  10 0006 0000     		.align	3
  11              	.LC1:
  12 0008 0A00     		.string	"\n"
  13 000a 00000000 		.align	3
  13      0000
  14              	.LC2:
  15 0010 41206669 		.string	"A finished!\n"
  15      6E697368 
  15      6564210A 
  15      00
  16              		.text
  17              		.align	2
  18              		.globl	_Z11workerBodyAPv
  20              	_Z11workerBodyAPv:
  21              	.LFB27:
  22              		.file 1 "src/Threads_C_API_test.hpp"
   1:src/Threads_C_API_test.hpp **** #ifndef XV6_THREADS_C_API_TEST_HPP
   2:src/Threads_C_API_test.hpp **** #define XV6_THREADS_C_API_TEST_HPP
   3:src/Threads_C_API_test.hpp **** 
   4:src/Threads_C_API_test.hpp **** #include "../h/syscall_c.h"
   5:src/Threads_C_API_test.hpp **** 
   6:src/Threads_C_API_test.hpp **** #include "printing.hpp"
   7:src/Threads_C_API_test.hpp **** 
   8:src/Threads_C_API_test.hpp **** bool finishedA = false;
   9:src/Threads_C_API_test.hpp **** bool finishedB = false;
  10:src/Threads_C_API_test.hpp **** bool finishedC = false;
  11:src/Threads_C_API_test.hpp **** bool finishedD = false;
  12:src/Threads_C_API_test.hpp **** 
  13:src/Threads_C_API_test.hpp **** uint64 fibonacci(uint64 n) {
  14:src/Threads_C_API_test.hpp ****     if (n == 0 || n == 1) { return n; }
  15:src/Threads_C_API_test.hpp ****     if (n % 10 == 0) { thread_dispatch(); }
  16:src/Threads_C_API_test.hpp ****     return fibonacci(n - 1) + fibonacci(n - 2);
  17:src/Threads_C_API_test.hpp **** }
  18:src/Threads_C_API_test.hpp **** 
  19:src/Threads_C_API_test.hpp **** void workerBodyA(void* arg) {
  23              		.loc 1 19 29
  24              		.cfi_startproc
  25              	.LVL0:
  26 0000 130101FE 		addi	sp,sp,-32
  27              		.cfi_def_cfa_offset 32
  28 0004 233C1100 		sd	ra,24(sp)
  29 0008 23388100 		sd	s0,16(sp)
  30 000c 23349100 		sd	s1,8(sp)
  31 0010 23302101 		sd	s2,0(sp)
  32              		.cfi_offset 1, -8
  33              		.cfi_offset 8, -16
  34              		.cfi_offset 9, -24
GAS LISTING /tmp/ccGYy57q.s 			page 2


  35              		.cfi_offset 18, -32
  36 0014 13040102 		addi	s0,sp,32
  37              		.cfi_def_cfa 8, 0
  20:src/Threads_C_API_test.hpp ****     for (uint64 i = 0; i < 10; i++) {
  38              		.loc 1 20 5
  39              	.LVL1:
  40              	.LBB2:
  41              		.loc 1 20 17 is_stmt 0
  42 0018 13090000 		li	s2,0
  43 001c 6F008000 		j	.L5
  44              	.LVL2:
  45              	.L3:
  46              		.loc 1 20 5 is_stmt 1 discriminator 2
  47 0020 13091900 		addi	s2,s2,1
  48              	.LVL3:
  49              	.L5:
  50              		.loc 1 20 26 discriminator 1
  51 0024 93079000 		li	a5,9
  52 0028 63EC2705 		bgtu	s2,a5,.L2
  53              	.LBB3:
  21:src/Threads_C_API_test.hpp ****         printString("A: i="); printInt(i); printString("\n");
  54              		.loc 1 21 9
  55              		.loc 1 21 20 is_stmt 0
  56 002c 17050000 		lla	a0,.LC0
  56      13050500 
  57 0034 97000000 		call	_Z11printStringPKc@plt
  57      E7800000 
  58              	.LVL4:
  59              		.loc 1 21 31 is_stmt 1
  60              		.loc 1 21 39 is_stmt 0
  61 003c 13060000 		li	a2,0
  62 0040 9305A000 		li	a1,10
  63 0044 1B050900 		sext.w	a0,s2
  64 0048 97000000 		call	_Z8printIntiii@plt
  64      E7800000 
  65              	.LVL5:
  66              		.loc 1 21 44 is_stmt 1
  67              		.loc 1 21 55 is_stmt 0
  68 0050 17050000 		lla	a0,.LC1
  68      13050500 
  69 0058 97000000 		call	_Z11printStringPKc@plt
  69      E7800000 
  70              	.LVL6:
  22:src/Threads_C_API_test.hpp ****         for (uint64 j = 0; j < 10000; j++) {
  71              		.loc 1 22 9 is_stmt 1
  72              	.LBB4:
  73              		.loc 1 22 21 is_stmt 0
  74 0060 93040000 		li	s1,0
  75              	.LVL7:
  76              	.L4:
  77              		.loc 1 22 30 is_stmt 1 discriminator 3
  78 0064 B7270000 		li	a5,8192
  79 0068 9387F770 		addi	a5,a5,1807
  80 006c E3EA97FA 		bgtu	s1,a5,.L3
  23:src/Threads_C_API_test.hpp **** //            for (uint64 k = 0; k < 30000; k++) { /* busy wait */ }
  24:src/Threads_C_API_test.hpp ****             thread_dispatch();
  81              		.loc 1 24 13 discriminator 2
GAS LISTING /tmp/ccGYy57q.s 			page 3


  82              		.loc 1 24 28 is_stmt 0 discriminator 2
  83 0070 97000000 		call	_Z15thread_dispatchv@plt
  83      E7800000 
  84              	.LVL8:
  22:src/Threads_C_API_test.hpp ****         for (uint64 j = 0; j < 10000; j++) {
  85              		.loc 1 22 9 is_stmt 1 discriminator 2
  86 0078 93841400 		addi	s1,s1,1
  87              	.LVL9:
  88 007c 6FF09FFE 		j	.L4
  89              	.LVL10:
  90              	.L2:
  91              	.LBE4:
  92              	.LBE3:
  93              	.LBE2:
  25:src/Threads_C_API_test.hpp ****         }
  26:src/Threads_C_API_test.hpp ****     }
  27:src/Threads_C_API_test.hpp ****     printString("A finished!\n");
  94              		.loc 1 27 5
  95              		.loc 1 27 16 is_stmt 0
  96 0080 17050000 		lla	a0,.LC2
  96      13050500 
  97 0088 97000000 		call	_Z11printStringPKc@plt
  97      E7800000 
  98              	.LVL11:
  28:src/Threads_C_API_test.hpp ****     finishedA = true;
  99              		.loc 1 28 5 is_stmt 1
 100              		.loc 1 28 15 is_stmt 0
 101 0090 93071000 		li	a5,1
 102 0094 17070000 		sb	a5,.LANCHOR0,a4
 102      2300F700 
  29:src/Threads_C_API_test.hpp **** }
 103              		.loc 1 29 1
 104 009c 83308101 		ld	ra,24(sp)
 105              		.cfi_restore 1
 106 00a0 03340101 		ld	s0,16(sp)
 107              		.cfi_restore 8
 108              		.cfi_def_cfa 2, 32
 109 00a4 83348100 		ld	s1,8(sp)
 110              		.cfi_restore 9
 111 00a8 03390100 		ld	s2,0(sp)
 112              		.cfi_restore 18
 113              	.LVL12:
 114 00ac 13010102 		addi	sp,sp,32
 115              		.cfi_def_cfa_offset 0
 116 00b0 67800000 		jr	ra
 117              		.cfi_endproc
 118              	.LFE27:
 120              		.section	.rodata.str1.8
 121 001d 000000   		.align	3
 122              	.LC3:
 123 0020 423A2069 		.string	"B: i="
 123      3D00
 124 0026 0000     		.align	3
 125              	.LC4:
 126 0028 42206669 		.string	"B finished!\n"
 126      6E697368 
 126      6564210A 
GAS LISTING /tmp/ccGYy57q.s 			page 4


 126      00
 127              		.text
 128              		.align	2
 129              		.globl	_Z11workerBodyBPv
 131              	_Z11workerBodyBPv:
 132              	.LFB28:
  30:src/Threads_C_API_test.hpp **** 
  31:src/Threads_C_API_test.hpp **** void workerBodyB(void* arg) {
 133              		.loc 1 31 29 is_stmt 1
 134              		.cfi_startproc
 135              	.LVL13:
 136 00b4 130101FE 		addi	sp,sp,-32
 137              		.cfi_def_cfa_offset 32
 138 00b8 233C1100 		sd	ra,24(sp)
 139 00bc 23388100 		sd	s0,16(sp)
 140 00c0 23349100 		sd	s1,8(sp)
 141 00c4 23302101 		sd	s2,0(sp)
 142              		.cfi_offset 1, -8
 143              		.cfi_offset 8, -16
 144              		.cfi_offset 9, -24
 145              		.cfi_offset 18, -32
 146 00c8 13040102 		addi	s0,sp,32
 147              		.cfi_def_cfa 8, 0
  32:src/Threads_C_API_test.hpp ****     for (uint64 i = 0; i < 16; i++) {
 148              		.loc 1 32 5
 149              	.LVL14:
 150              	.LBB5:
 151              		.loc 1 32 17 is_stmt 0
 152 00cc 13090000 		li	s2,0
 153 00d0 6F008000 		j	.L11
 154              	.LVL15:
 155              	.L9:
 156              		.loc 1 32 5 is_stmt 1 discriminator 2
 157 00d4 13091900 		addi	s2,s2,1
 158              	.LVL16:
 159              	.L11:
 160              		.loc 1 32 26 discriminator 1
 161 00d8 9307F000 		li	a5,15
 162 00dc 63EC2705 		bgtu	s2,a5,.L8
 163              	.LBB6:
  33:src/Threads_C_API_test.hpp ****         printString("B: i="); printInt(i); printString("\n");
 164              		.loc 1 33 9
 165              		.loc 1 33 20 is_stmt 0
 166 00e0 17050000 		lla	a0,.LC3
 166      13050500 
 167 00e8 97000000 		call	_Z11printStringPKc@plt
 167      E7800000 
 168              	.LVL17:
 169              		.loc 1 33 31 is_stmt 1
 170              		.loc 1 33 39 is_stmt 0
 171 00f0 13060000 		li	a2,0
 172 00f4 9305A000 		li	a1,10
 173 00f8 1B050900 		sext.w	a0,s2
 174 00fc 97000000 		call	_Z8printIntiii@plt
 174      E7800000 
 175              	.LVL18:
 176              		.loc 1 33 44 is_stmt 1
GAS LISTING /tmp/ccGYy57q.s 			page 5


 177              		.loc 1 33 55 is_stmt 0
 178 0104 17050000 		lla	a0,.LC1
 178      13050500 
 179 010c 97000000 		call	_Z11printStringPKc@plt
 179      E7800000 
 180              	.LVL19:
  34:src/Threads_C_API_test.hpp ****         for (uint64 j = 0; j < 10000; j++) {
 181              		.loc 1 34 9 is_stmt 1
 182              	.LBB7:
 183              		.loc 1 34 21 is_stmt 0
 184 0114 93040000 		li	s1,0
 185              	.LVL20:
 186              	.L10:
 187              		.loc 1 34 30 is_stmt 1 discriminator 3
 188 0118 B7270000 		li	a5,8192
 189 011c 9387F770 		addi	a5,a5,1807
 190 0120 E3EA97FA 		bgtu	s1,a5,.L9
  35:src/Threads_C_API_test.hpp **** //            for (uint64 k = 0; k < 30000; k++) { /* busy wait */ }
  36:src/Threads_C_API_test.hpp ****             thread_dispatch();
 191              		.loc 1 36 13 discriminator 2
 192              		.loc 1 36 28 is_stmt 0 discriminator 2
 193 0124 97000000 		call	_Z15thread_dispatchv@plt
 193      E7800000 
 194              	.LVL21:
  34:src/Threads_C_API_test.hpp ****         for (uint64 j = 0; j < 10000; j++) {
 195              		.loc 1 34 9 is_stmt 1 discriminator 2
 196 012c 93841400 		addi	s1,s1,1
 197              	.LVL22:
 198 0130 6FF09FFE 		j	.L10
 199              	.LVL23:
 200              	.L8:
 201              	.LBE7:
 202              	.LBE6:
 203              	.LBE5:
  37:src/Threads_C_API_test.hpp ****         }
  38:src/Threads_C_API_test.hpp ****     }
  39:src/Threads_C_API_test.hpp ****     printString("B finished!\n");
 204              		.loc 1 39 5
 205              		.loc 1 39 16 is_stmt 0
 206 0134 17050000 		lla	a0,.LC4
 206      13050500 
 207 013c 97000000 		call	_Z11printStringPKc@plt
 207      E7800000 
 208              	.LVL24:
  40:src/Threads_C_API_test.hpp ****     finishedB = true;
 209              		.loc 1 40 5 is_stmt 1
 210              		.loc 1 40 15 is_stmt 0
 211 0144 93071000 		li	a5,1
 212 0148 17070000 		sb	a5,.LANCHOR0+1,a4
 212      2300F700 
  41:src/Threads_C_API_test.hpp ****     thread_dispatch();
 213              		.loc 1 41 5 is_stmt 1
 214              		.loc 1 41 20 is_stmt 0
 215 0150 97000000 		call	_Z15thread_dispatchv@plt
 215      E7800000 
 216              	.LVL25:
  42:src/Threads_C_API_test.hpp **** }
GAS LISTING /tmp/ccGYy57q.s 			page 6


 217              		.loc 1 42 1
 218 0158 83308101 		ld	ra,24(sp)
 219              		.cfi_restore 1
 220 015c 03340101 		ld	s0,16(sp)
 221              		.cfi_restore 8
 222              		.cfi_def_cfa 2, 32
 223 0160 83348100 		ld	s1,8(sp)
 224              		.cfi_restore 9
 225 0164 03390100 		ld	s2,0(sp)
 226              		.cfi_restore 18
 227              	.LVL26:
 228 0168 13010102 		addi	sp,sp,32
 229              		.cfi_def_cfa_offset 0
 230 016c 67800000 		jr	ra
 231              		.cfi_endproc
 232              	.LFE28:
 234              		.align	2
 235              		.globl	_Z9fibonaccim
 237              	_Z9fibonaccim:
 238              	.LFB26:
  13:src/Threads_C_API_test.hpp ****     if (n == 0 || n == 1) { return n; }
 239              		.loc 1 13 28 is_stmt 1
 240              		.cfi_startproc
 241              	.LVL27:
 242 0170 130101FE 		addi	sp,sp,-32
 243              		.cfi_def_cfa_offset 32
 244 0174 233C1100 		sd	ra,24(sp)
 245 0178 23388100 		sd	s0,16(sp)
 246 017c 23349100 		sd	s1,8(sp)
 247 0180 23302101 		sd	s2,0(sp)
 248              		.cfi_offset 1, -8
 249              		.cfi_offset 8, -16
 250              		.cfi_offset 9, -24
 251              		.cfi_offset 18, -32
 252 0184 13040102 		addi	s0,sp,32
 253              		.cfi_def_cfa 8, 0
 254 0188 93040500 		mv	s1,a0
  14:src/Threads_C_API_test.hpp ****     if (n % 10 == 0) { thread_dispatch(); }
 255              		.loc 1 14 5
 256 018c 93071000 		li	a5,1
 257 0190 63F8A702 		bleu	a0,a5,.L13
  15:src/Threads_C_API_test.hpp ****     return fibonacci(n - 1) + fibonacci(n - 2);
 258              		.loc 1 15 5
  15:src/Threads_C_API_test.hpp ****     return fibonacci(n - 1) + fibonacci(n - 2);
 259              		.loc 1 15 11 is_stmt 0
 260 0194 9307A000 		li	a5,10
 261 0198 B377F502 		remu	a5,a0,a5
  15:src/Threads_C_API_test.hpp ****     return fibonacci(n - 1) + fibonacci(n - 2);
 262              		.loc 1 15 5
 263 019c 638E0702 		beqz	a5,.L18
 264              	.LVL28:
 265              	.L15:
  16:src/Threads_C_API_test.hpp **** }
 266              		.loc 1 16 5 is_stmt 1
  16:src/Threads_C_API_test.hpp **** }
 267              		.loc 1 16 21 is_stmt 0
 268 01a0 1385F4FF 		addi	a0,s1,-1
GAS LISTING /tmp/ccGYy57q.s 			page 7


 269 01a4 97000000 		call	_Z9fibonaccim
 269      E7800000 
 270              	.LVL29:
 271 01ac 13090500 		mv	s2,a0
  16:src/Threads_C_API_test.hpp **** }
 272              		.loc 1 16 40
 273 01b0 1385E4FF 		addi	a0,s1,-2
 274 01b4 97000000 		call	_Z9fibonaccim
 274      E7800000 
 275              	.LVL30:
  16:src/Threads_C_API_test.hpp **** }
 276              		.loc 1 16 46
 277 01bc 3305A900 		add	a0,s2,a0
 278              	.L13:
  17:src/Threads_C_API_test.hpp **** 
 279              		.loc 1 17 1
 280 01c0 83308101 		ld	ra,24(sp)
 281              		.cfi_remember_state
 282              		.cfi_restore 1
 283 01c4 03340101 		ld	s0,16(sp)
 284              		.cfi_restore 8
 285              		.cfi_def_cfa 2, 32
 286 01c8 83348100 		ld	s1,8(sp)
 287              		.cfi_restore 9
 288              	.LVL31:
 289 01cc 03390100 		ld	s2,0(sp)
 290              		.cfi_restore 18
 291 01d0 13010102 		addi	sp,sp,32
 292              		.cfi_def_cfa_offset 0
 293 01d4 67800000 		jr	ra
 294              	.LVL32:
 295              	.L18:
 296              		.cfi_restore_state
  15:src/Threads_C_API_test.hpp ****     return fibonacci(n - 1) + fibonacci(n - 2);
 297              		.loc 1 15 24 is_stmt 1 discriminator 1
  15:src/Threads_C_API_test.hpp ****     return fibonacci(n - 1) + fibonacci(n - 2);
 298              		.loc 1 15 39 is_stmt 0 discriminator 1
 299 01d8 97000000 		call	_Z15thread_dispatchv@plt
 299      E7800000 
 300              	.LVL33:
 301 01e0 6FF01FFC 		j	.L15
 302              		.cfi_endproc
 303              	.LFE26:
 305              		.section	.rodata.str1.8
 306 0035 000000   		.align	3
 307              	.LC5:
 308 0038 433A2069 		.string	"C: i="
 308      3D00
 309 003e 0000     		.align	3
 310              	.LC6:
 311 0040 433A2064 		.string	"C: dispatch\n"
 311      69737061 
 311      7463680A 
 311      00
 312 004d 000000   		.align	3
 313              	.LC7:
 314 0050 433A2074 		.string	"C: t1="
GAS LISTING /tmp/ccGYy57q.s 			page 8


 314      313D00
 315 0057 00       		.align	3
 316              	.LC8:
 317 0058 433A2066 		.string	"C: fibonaci="
 317      69626F6E 
 317      6163693D 
 317      00
 318              		.text
 319              		.align	2
 320              		.globl	_Z11workerBodyCPv
 322              	_Z11workerBodyCPv:
 323              	.LFB29:
  43:src/Threads_C_API_test.hpp **** 
  44:src/Threads_C_API_test.hpp **** void workerBodyC(void* arg) {
 324              		.loc 1 44 29 is_stmt 1
 325              		.cfi_startproc
 326              	.LVL34:
 327 01e4 130101FE 		addi	sp,sp,-32
 328              		.cfi_def_cfa_offset 32
 329 01e8 233C1100 		sd	ra,24(sp)
 330 01ec 23388100 		sd	s0,16(sp)
 331 01f0 23349100 		sd	s1,8(sp)
 332 01f4 23302101 		sd	s2,0(sp)
 333              		.cfi_offset 1, -8
 334              		.cfi_offset 8, -16
 335              		.cfi_offset 9, -24
 336              		.cfi_offset 18, -32
 337 01f8 13040102 		addi	s0,sp,32
 338              		.cfi_def_cfa 8, 0
  45:src/Threads_C_API_test.hpp ****     uint8 i = 0;
 339              		.loc 1 45 5
 340              	.LVL35:
 341              		.loc 1 45 11 is_stmt 0
 342 01fc 93040000 		li	s1,0
 343 0200 6F000004 		j	.L21
 344              	.LVL36:
 345              	.L25:
  46:src/Threads_C_API_test.hpp ****     for (; i < 3; i++) {
  47:src/Threads_C_API_test.hpp ****         printString("C: i="); printInt(i); printString("\n");
 346              		.loc 1 47 9 is_stmt 1 discriminator 1
 347              		.loc 1 47 20 is_stmt 0 discriminator 1
 348 0204 17050000 		lla	a0,.LC5
 348      13050500 
 349 020c 97000000 		call	_Z11printStringPKc@plt
 349      E7800000 
 350              	.LVL37:
 351              		.loc 1 47 31 is_stmt 1 discriminator 1
 352              		.loc 1 47 39 is_stmt 0 discriminator 1
 353 0214 13060000 		li	a2,0
 354 0218 9305A000 		li	a1,10
 355 021c 13850400 		mv	a0,s1
 356 0220 97000000 		call	_Z8printIntiii@plt
 356      E7800000 
 357              	.LVL38:
 358              		.loc 1 47 44 is_stmt 1 discriminator 1
 359              		.loc 1 47 55 is_stmt 0 discriminator 1
 360 0228 17050000 		lla	a0,.LC1
GAS LISTING /tmp/ccGYy57q.s 			page 9


 360      13050500 
 361 0230 97000000 		call	_Z11printStringPKc@plt
 361      E7800000 
 362              	.LVL39:
  46:src/Threads_C_API_test.hpp ****     for (; i < 3; i++) {
 363              		.loc 1 46 5 is_stmt 1 discriminator 1
 364 0238 9B841400 		addiw	s1,s1,1
 365              	.LVL40:
 366 023c 93F4F40F 		andi	s1,s1,0xff
 367              	.LVL41:
 368              	.L21:
  46:src/Threads_C_API_test.hpp ****     for (; i < 3; i++) {
 369              		.loc 1 46 5 discriminator 2
  46:src/Threads_C_API_test.hpp ****     for (; i < 3; i++) {
 370              		.loc 1 46 14 discriminator 2
 371 0240 93072000 		li	a5,2
 372 0244 E3F097FC 		bleu	s1,a5,.L25
  48:src/Threads_C_API_test.hpp ****     }
  49:src/Threads_C_API_test.hpp **** 
  50:src/Threads_C_API_test.hpp ****     printString("C: dispatch\n");
 373              		.loc 1 50 5
 374              		.loc 1 50 16 is_stmt 0
 375 0248 17050000 		lla	a0,.LC6
 375      13050500 
 376 0250 97000000 		call	_Z11printStringPKc@plt
 376      E7800000 
 377              	.LVL42:
  51:src/Threads_C_API_test.hpp ****     __asm__ ("li t1, 7");
 378              		.loc 1 51 5 is_stmt 1
 379              		.loc 1 51 25 is_stmt 0
 380              	#APP
 381              	# 51 "src/Threads_C_API_test.hpp" 1
  52              	    thread_dispatch();
 382              		li t1, 7
 383              	# 0 "" 2
 384              		.loc 1 52 5 is_stmt 1
 385              		.loc 1 52 20 is_stmt 0
 386              	#NO_APP
 387 025c 97000000 		call	_Z15thread_dispatchv@plt
 387      E7800000 
 388              	.LVL43:
  53:src/Threads_C_API_test.hpp **** 
  54:src/Threads_C_API_test.hpp ****     uint64 t1 = 0;
 389              		.loc 1 54 5 is_stmt 1
  55:src/Threads_C_API_test.hpp ****     __asm__ ("mv %[t1], t1" : [t1] "=r"(t1));
 390              		.loc 1 55 5
 391              		.loc 1 55 45 is_stmt 0
 392              	#APP
 393              	# 55 "src/Threads_C_API_test.hpp" 1
  56              	
 394              		mv s2, t1
 395              	# 0 "" 2
 396              	.LVL44:
  57:src/Threads_C_API_test.hpp ****     printString("C: t1="); printInt(t1); printString("\n");
 397              		.loc 1 57 5 is_stmt 1
 398              		.loc 1 57 16 is_stmt 0
 399              	#NO_APP
GAS LISTING /tmp/ccGYy57q.s 			page 10


 400 0268 17050000 		lla	a0,.LC7
 400      13050500 
 401 0270 97000000 		call	_Z11printStringPKc@plt
 401      E7800000 
 402              	.LVL45:
 403              		.loc 1 57 28 is_stmt 1
 404              		.loc 1 57 36 is_stmt 0
 405 0278 13060000 		li	a2,0
 406 027c 9305A000 		li	a1,10
 407 0280 1B050900 		sext.w	a0,s2
 408 0284 97000000 		call	_Z8printIntiii@plt
 408      E7800000 
 409              	.LVL46:
 410              		.loc 1 57 42 is_stmt 1
 411              		.loc 1 57 53 is_stmt 0
 412 028c 17050000 		lla	a0,.LC1
 412      13050500 
 413 0294 97000000 		call	_Z11printStringPKc@plt
 413      E7800000 
 414              	.LVL47:
  58:src/Threads_C_API_test.hpp **** 
  59:src/Threads_C_API_test.hpp ****     uint64 result = fibonacci(12);
 415              		.loc 1 59 5 is_stmt 1
 416              		.loc 1 59 30 is_stmt 0
 417 029c 1305C000 		li	a0,12
 418 02a0 97000000 		call	_Z9fibonaccim
 418      E7800000 
 419              	.LVL48:
 420 02a8 13090500 		mv	s2,a0
 421              	.LVL49:
  60:src/Threads_C_API_test.hpp ****     printString("C: fibonaci="); printInt(result); printString("\n");
 422              		.loc 1 60 5 is_stmt 1
 423              		.loc 1 60 16 is_stmt 0
 424 02ac 17050000 		lla	a0,.LC8
 424      13050500 
 425              	.LVL50:
 426 02b4 97000000 		call	_Z11printStringPKc@plt
 426      E7800000 
 427              	.LVL51:
 428              		.loc 1 60 34 is_stmt 1
 429              		.loc 1 60 42 is_stmt 0
 430 02bc 13060000 		li	a2,0
 431 02c0 9305A000 		li	a1,10
 432 02c4 1B050900 		sext.w	a0,s2
 433 02c8 97000000 		call	_Z8printIntiii@plt
 433      E7800000 
 434              	.LVL52:
 435              		.loc 1 60 52 is_stmt 1
 436              		.loc 1 60 63 is_stmt 0
 437 02d0 17050000 		lla	a0,.LC1
 437      13050500 
 438 02d8 97000000 		call	_Z11printStringPKc@plt
 438      E7800000 
 439              	.LVL53:
 440 02e0 6F000004 		j	.L23
 441              	.L26:
  61:src/Threads_C_API_test.hpp **** 
GAS LISTING /tmp/ccGYy57q.s 			page 11


  62:src/Threads_C_API_test.hpp ****     for (; i < 6; i++) {
  63:src/Threads_C_API_test.hpp ****         printString("C: i="); printInt(i); printString("\n");
 442              		.loc 1 63 9 is_stmt 1 discriminator 1
 443              		.loc 1 63 20 is_stmt 0 discriminator 1
 444 02e4 17050000 		lla	a0,.LC5
 444      13050500 
 445 02ec 97000000 		call	_Z11printStringPKc@plt
 445      E7800000 
 446              	.LVL54:
 447              		.loc 1 63 31 is_stmt 1 discriminator 1
 448              		.loc 1 63 39 is_stmt 0 discriminator 1
 449 02f4 13060000 		li	a2,0
 450 02f8 9305A000 		li	a1,10
 451 02fc 13850400 		mv	a0,s1
 452 0300 97000000 		call	_Z8printIntiii@plt
 452      E7800000 
 453              	.LVL55:
 454              		.loc 1 63 44 is_stmt 1 discriminator 1
 455              		.loc 1 63 55 is_stmt 0 discriminator 1
 456 0308 17050000 		lla	a0,.LC1
 456      13050500 
 457 0310 97000000 		call	_Z11printStringPKc@plt
 457      E7800000 
 458              	.LVL56:
  62:src/Threads_C_API_test.hpp ****         printString("C: i="); printInt(i); printString("\n");
 459              		.loc 1 62 5 is_stmt 1 discriminator 1
 460 0318 9B841400 		addiw	s1,s1,1
 461              	.LVL57:
 462 031c 93F4F40F 		andi	s1,s1,0xff
 463              	.LVL58:
 464              	.L23:
  62:src/Threads_C_API_test.hpp ****         printString("C: i="); printInt(i); printString("\n");
 465              		.loc 1 62 5 discriminator 2
  62:src/Threads_C_API_test.hpp ****         printString("C: i="); printInt(i); printString("\n");
 466              		.loc 1 62 14 discriminator 2
 467 0320 93075000 		li	a5,5
 468 0324 E3F097FC 		bleu	s1,a5,.L26
  64:src/Threads_C_API_test.hpp ****     }
  65:src/Threads_C_API_test.hpp **** 
  66:src/Threads_C_API_test.hpp ****     printString("A finished!\n");
 469              		.loc 1 66 5
 470              		.loc 1 66 16 is_stmt 0
 471 0328 17050000 		lla	a0,.LC2
 471      13050500 
 472 0330 97000000 		call	_Z11printStringPKc@plt
 472      E7800000 
 473              	.LVL59:
  67:src/Threads_C_API_test.hpp ****     finishedC = true;
 474              		.loc 1 67 5 is_stmt 1
 475              		.loc 1 67 15 is_stmt 0
 476 0338 93071000 		li	a5,1
 477 033c 17070000 		sb	a5,.LANCHOR0+2,a4
 477      2300F700 
  68:src/Threads_C_API_test.hpp ****     thread_dispatch();
 478              		.loc 1 68 5 is_stmt 1
 479              		.loc 1 68 20 is_stmt 0
 480 0344 97000000 		call	_Z15thread_dispatchv@plt
GAS LISTING /tmp/ccGYy57q.s 			page 12


 480      E7800000 
 481              	.LVL60:
  69:src/Threads_C_API_test.hpp **** }
 482              		.loc 1 69 1
 483 034c 83308101 		ld	ra,24(sp)
 484              		.cfi_restore 1
 485 0350 03340101 		ld	s0,16(sp)
 486              		.cfi_restore 8
 487              		.cfi_def_cfa 2, 32
 488 0354 83348100 		ld	s1,8(sp)
 489              		.cfi_restore 9
 490              	.LVL61:
 491 0358 03390100 		ld	s2,0(sp)
 492              		.cfi_restore 18
 493              	.LVL62:
 494 035c 13010102 		addi	sp,sp,32
 495              		.cfi_def_cfa_offset 0
 496 0360 67800000 		jr	ra
 497              		.cfi_endproc
 498              	.LFE29:
 500              		.section	.rodata.str1.8
 501 0065 000000   		.align	3
 502              	.LC9:
 503 0068 443A2069 		.string	"D: i="
 503      3D00
 504 006e 0000     		.align	3
 505              	.LC10:
 506 0070 443A2064 		.string	"D: dispatch\n"
 506      69737061 
 506      7463680A 
 506      00
 507 007d 000000   		.align	3
 508              	.LC11:
 509 0080 443A2066 		.string	"D: fibonaci="
 509      69626F6E 
 509      6163693D 
 509      00
 510 008d 000000   		.align	3
 511              	.LC12:
 512 0090 44206669 		.string	"D finished!\n"
 512      6E697368 
 512      6564210A 
 512      00
 513              		.text
 514              		.align	2
 515              		.globl	_Z11workerBodyDPv
 517              	_Z11workerBodyDPv:
 518              	.LFB30:
  70:src/Threads_C_API_test.hpp **** 
  71:src/Threads_C_API_test.hpp **** void workerBodyD(void* arg) {
 519              		.loc 1 71 29 is_stmt 1
 520              		.cfi_startproc
 521              	.LVL63:
 522 0364 130101FE 		addi	sp,sp,-32
 523              		.cfi_def_cfa_offset 32
 524 0368 233C1100 		sd	ra,24(sp)
 525 036c 23388100 		sd	s0,16(sp)
GAS LISTING /tmp/ccGYy57q.s 			page 13


 526 0370 23349100 		sd	s1,8(sp)
 527 0374 23302101 		sd	s2,0(sp)
 528              		.cfi_offset 1, -8
 529              		.cfi_offset 8, -16
 530              		.cfi_offset 9, -24
 531              		.cfi_offset 18, -32
 532 0378 13040102 		addi	s0,sp,32
 533              		.cfi_def_cfa 8, 0
  72:src/Threads_C_API_test.hpp ****     uint8 i = 10;
 534              		.loc 1 72 5
 535              	.LVL64:
 536              		.loc 1 72 11 is_stmt 0
 537 037c 9304A000 		li	s1,10
 538 0380 6F000004 		j	.L29
 539              	.LVL65:
 540              	.L33:
  73:src/Threads_C_API_test.hpp ****     for (; i < 13; i++) {
  74:src/Threads_C_API_test.hpp ****         printString("D: i="); printInt(i); printString("\n");
 541              		.loc 1 74 9 is_stmt 1 discriminator 1
 542              		.loc 1 74 20 is_stmt 0 discriminator 1
 543 0384 17050000 		lla	a0,.LC9
 543      13050500 
 544 038c 97000000 		call	_Z11printStringPKc@plt
 544      E7800000 
 545              	.LVL66:
 546              		.loc 1 74 31 is_stmt 1 discriminator 1
 547              		.loc 1 74 39 is_stmt 0 discriminator 1
 548 0394 13060000 		li	a2,0
 549 0398 9305A000 		li	a1,10
 550 039c 13850400 		mv	a0,s1
 551 03a0 97000000 		call	_Z8printIntiii@plt
 551      E7800000 
 552              	.LVL67:
 553              		.loc 1 74 44 is_stmt 1 discriminator 1
 554              		.loc 1 74 55 is_stmt 0 discriminator 1
 555 03a8 17050000 		lla	a0,.LC1
 555      13050500 
 556 03b0 97000000 		call	_Z11printStringPKc@plt
 556      E7800000 
 557              	.LVL68:
  73:src/Threads_C_API_test.hpp ****     for (; i < 13; i++) {
 558              		.loc 1 73 5 is_stmt 1 discriminator 1
 559 03b8 9B841400 		addiw	s1,s1,1
 560              	.LVL69:
 561 03bc 93F4F40F 		andi	s1,s1,0xff
 562              	.LVL70:
 563              	.L29:
  73:src/Threads_C_API_test.hpp ****     for (; i < 13; i++) {
 564              		.loc 1 73 5 discriminator 2
  73:src/Threads_C_API_test.hpp ****     for (; i < 13; i++) {
 565              		.loc 1 73 14 discriminator 2
 566 03c0 9307C000 		li	a5,12
 567 03c4 E3F097FC 		bleu	s1,a5,.L33
  75:src/Threads_C_API_test.hpp ****     }
  76:src/Threads_C_API_test.hpp **** 
  77:src/Threads_C_API_test.hpp ****     printString("D: dispatch\n");
 568              		.loc 1 77 5
GAS LISTING /tmp/ccGYy57q.s 			page 14


 569              		.loc 1 77 16 is_stmt 0
 570 03c8 17050000 		lla	a0,.LC10
 570      13050500 
 571 03d0 97000000 		call	_Z11printStringPKc@plt
 571      E7800000 
 572              	.LVL71:
  78:src/Threads_C_API_test.hpp ****     __asm__ ("li t1, 5");
 573              		.loc 1 78 5 is_stmt 1
 574              		.loc 1 78 25 is_stmt 0
 575              	#APP
 576              	# 78 "src/Threads_C_API_test.hpp" 1
  79              	    thread_dispatch();
 577              		li t1, 5
 578              	# 0 "" 2
 579              		.loc 1 79 5 is_stmt 1
 580              		.loc 1 79 20 is_stmt 0
 581              	#NO_APP
 582 03dc 97000000 		call	_Z15thread_dispatchv@plt
 582      E7800000 
 583              	.LVL72:
  80:src/Threads_C_API_test.hpp **** 
  81:src/Threads_C_API_test.hpp ****     uint64 result = fibonacci(16);
 584              		.loc 1 81 5 is_stmt 1
 585              		.loc 1 81 30 is_stmt 0
 586 03e4 13050001 		li	a0,16
 587 03e8 97000000 		call	_Z9fibonaccim
 587      E7800000 
 588              	.LVL73:
 589 03f0 13090500 		mv	s2,a0
 590              	.LVL74:
  82:src/Threads_C_API_test.hpp ****     printString("D: fibonaci="); printInt(result); printString("\n");
 591              		.loc 1 82 5 is_stmt 1
 592              		.loc 1 82 16 is_stmt 0
 593 03f4 17050000 		lla	a0,.LC11
 593      13050500 
 594              	.LVL75:
 595 03fc 97000000 		call	_Z11printStringPKc@plt
 595      E7800000 
 596              	.LVL76:
 597              		.loc 1 82 34 is_stmt 1
 598              		.loc 1 82 42 is_stmt 0
 599 0404 13060000 		li	a2,0
 600 0408 9305A000 		li	a1,10
 601 040c 1B050900 		sext.w	a0,s2
 602 0410 97000000 		call	_Z8printIntiii@plt
 602      E7800000 
 603              	.LVL77:
 604              		.loc 1 82 52 is_stmt 1
 605              		.loc 1 82 63 is_stmt 0
 606 0418 17050000 		lla	a0,.LC1
 606      13050500 
 607 0420 97000000 		call	_Z11printStringPKc@plt
 607      E7800000 
 608              	.LVL78:
 609 0428 6F000004 		j	.L31
 610              	.L34:
  83:src/Threads_C_API_test.hpp **** 
GAS LISTING /tmp/ccGYy57q.s 			page 15


  84:src/Threads_C_API_test.hpp ****     for (; i < 16; i++) {
  85:src/Threads_C_API_test.hpp ****         printString("D: i="); printInt(i); printString("\n");
 611              		.loc 1 85 9 is_stmt 1 discriminator 1
 612              		.loc 1 85 20 is_stmt 0 discriminator 1
 613 042c 17050000 		lla	a0,.LC9
 613      13050500 
 614 0434 97000000 		call	_Z11printStringPKc@plt
 614      E7800000 
 615              	.LVL79:
 616              		.loc 1 85 31 is_stmt 1 discriminator 1
 617              		.loc 1 85 39 is_stmt 0 discriminator 1
 618 043c 13060000 		li	a2,0
 619 0440 9305A000 		li	a1,10
 620 0444 13850400 		mv	a0,s1
 621 0448 97000000 		call	_Z8printIntiii@plt
 621      E7800000 
 622              	.LVL80:
 623              		.loc 1 85 44 is_stmt 1 discriminator 1
 624              		.loc 1 85 55 is_stmt 0 discriminator 1
 625 0450 17050000 		lla	a0,.LC1
 625      13050500 
 626 0458 97000000 		call	_Z11printStringPKc@plt
 626      E7800000 
 627              	.LVL81:
  84:src/Threads_C_API_test.hpp ****         printString("D: i="); printInt(i); printString("\n");
 628              		.loc 1 84 5 is_stmt 1 discriminator 1
 629 0460 9B841400 		addiw	s1,s1,1
 630              	.LVL82:
 631 0464 93F4F40F 		andi	s1,s1,0xff
 632              	.LVL83:
 633              	.L31:
  84:src/Threads_C_API_test.hpp ****         printString("D: i="); printInt(i); printString("\n");
 634              		.loc 1 84 5 discriminator 2
  84:src/Threads_C_API_test.hpp ****         printString("D: i="); printInt(i); printString("\n");
 635              		.loc 1 84 14 discriminator 2
 636 0468 9307F000 		li	a5,15
 637 046c E3F097FC 		bleu	s1,a5,.L34
  86:src/Threads_C_API_test.hpp ****     }
  87:src/Threads_C_API_test.hpp **** 
  88:src/Threads_C_API_test.hpp ****     printString("D finished!\n");
 638              		.loc 1 88 5
 639              		.loc 1 88 16 is_stmt 0
 640 0470 17050000 		lla	a0,.LC12
 640      13050500 
 641 0478 97000000 		call	_Z11printStringPKc@plt
 641      E7800000 
 642              	.LVL84:
  89:src/Threads_C_API_test.hpp ****     finishedD = true;
 643              		.loc 1 89 5 is_stmt 1
 644              		.loc 1 89 15 is_stmt 0
 645 0480 93071000 		li	a5,1
 646 0484 17070000 		sb	a5,.LANCHOR0+3,a4
 646      2300F700 
  90:src/Threads_C_API_test.hpp ****     thread_dispatch();
 647              		.loc 1 90 5 is_stmt 1
 648              		.loc 1 90 20 is_stmt 0
 649 048c 97000000 		call	_Z15thread_dispatchv@plt
GAS LISTING /tmp/ccGYy57q.s 			page 16


 649      E7800000 
 650              	.LVL85:
  91:src/Threads_C_API_test.hpp **** }
 651              		.loc 1 91 1
 652 0494 83308101 		ld	ra,24(sp)
 653              		.cfi_restore 1
 654 0498 03340101 		ld	s0,16(sp)
 655              		.cfi_restore 8
 656              		.cfi_def_cfa 2, 32
 657 049c 83348100 		ld	s1,8(sp)
 658              		.cfi_restore 9
 659              	.LVL86:
 660 04a0 03390100 		ld	s2,0(sp)
 661              		.cfi_restore 18
 662              	.LVL87:
 663 04a4 13010102 		addi	sp,sp,32
 664              		.cfi_def_cfa_offset 0
 665 04a8 67800000 		jr	ra
 666              		.cfi_endproc
 667              	.LFE30:
 669              		.section	.rodata.str1.8
 670 009d 000000   		.align	3
 671              	.LC13:
 672 00a0 0A746872 		.string	"\nthr0: "
 672      303A2000 
 673              		.align	3
 674              	.LC14:
 675 00a8 54687265 		.string	"ThreadA created\n"
 675      61644120 
 675      63726561 
 675      7465640A 
 675      00
 676 00b9 00000000 		.align	3
 676      000000
 677              	.LC15:
 678 00c0 54687265 		.string	"ThreadB created\n"
 678      61644220 
 678      63726561 
 678      7465640A 
 678      00
 679 00d1 00000000 		.align	3
 679      000000
 680              	.LC16:
 681 00d8 54687265 		.string	"ThreadC created\n"
 681      61644320 
 681      63726561 
 681      7465640A 
 681      00
 682 00e9 00000000 		.align	3
 682      000000
 683              	.LC17:
 684 00f0 54687265 		.string	"ThreadD created\n"
 684      61644420 
 684      63726561 
 684      7465640A 
 684      00
 685              		.text
GAS LISTING /tmp/ccGYy57q.s 			page 17


 686              		.align	2
 687              		.globl	_Z18Threads_C_API_testv
 689              	_Z18Threads_C_API_testv:
 690              	.LFB31:
  92:src/Threads_C_API_test.hpp **** 
  93:src/Threads_C_API_test.hpp **** 
  94:src/Threads_C_API_test.hpp **** void Threads_C_API_test() {
 691              		.loc 1 94 27 is_stmt 1
 692              		.cfi_startproc
 693 04ac 130101FC 		addi	sp,sp,-64
 694              		.cfi_def_cfa_offset 64
 695 04b0 233C1102 		sd	ra,56(sp)
 696 04b4 23388102 		sd	s0,48(sp)
 697 04b8 23349102 		sd	s1,40(sp)
 698              		.cfi_offset 1, -8
 699              		.cfi_offset 8, -16
 700              		.cfi_offset 9, -24
 701 04bc 13040104 		addi	s0,sp,64
 702              		.cfi_def_cfa 8, 0
  95:src/Threads_C_API_test.hpp ****     thread_t threads[4];
 703              		.loc 1 95 5
  96:src/Threads_C_API_test.hpp ****     printString("\nthr0: ");
 704              		.loc 1 96 5
 705              		.loc 1 96 16 is_stmt 0
 706 04c0 17050000 		lla	a0,.LC13
 706      13050500 
 707 04c8 97000000 		call	_Z11printStringPKc@plt
 707      E7800000 
 708              	.LVL88:
  97:src/Threads_C_API_test.hpp ****     printInt((uint64)&threads[0], 16, 0);
 709              		.loc 1 97 5 is_stmt 1
 710              		.loc 1 97 13 is_stmt 0
 711 04d0 13060000 		li	a2,0
 712 04d4 93050001 		li	a1,16
 713 04d8 930404FC 		addi	s1,s0,-64
 714 04dc 1B850400 		sext.w	a0,s1
 715 04e0 97000000 		call	_Z8printIntiii@plt
 715      E7800000 
 716              	.LVL89:
  98:src/Threads_C_API_test.hpp ****     thread_create(&threads[0], workerBodyA, nullptr);
 717              		.loc 1 98 5 is_stmt 1
 718              		.loc 1 98 18 is_stmt 0
 719 04e8 13060000 		li	a2,0
 720 04ec 97050000 		lla	a1,_Z11workerBodyAPv
 720      93850500 
 721 04f4 13850400 		mv	a0,s1
 722 04f8 97000000 		call	_Z13thread_createPP3TCBPFvPvES2_@plt
 722      E7800000 
 723              	.LVL90:
  99:src/Threads_C_API_test.hpp ****     printString("ThreadA created\n");
 724              		.loc 1 99 5 is_stmt 1
 725              		.loc 1 99 16 is_stmt 0
 726 0500 17050000 		lla	a0,.LC14
 726      13050500 
 727 0508 97000000 		call	_Z11printStringPKc@plt
 727      E7800000 
 728              	.LVL91:
GAS LISTING /tmp/ccGYy57q.s 			page 18


 100:src/Threads_C_API_test.hpp **** 
 101:src/Threads_C_API_test.hpp ****     printString("\nthr0: ");
 729              		.loc 1 101 5 is_stmt 1
 730              		.loc 1 101 16 is_stmt 0
 731 0510 17050000 		lla	a0,.LC13
 731      13050500 
 732 0518 97000000 		call	_Z11printStringPKc@plt
 732      E7800000 
 733              	.LVL92:
 102:src/Threads_C_API_test.hpp ****     printInt((uint64)&threads[1], 16, 0);
 734              		.loc 1 102 5 is_stmt 1
 735              		.loc 1 102 13 is_stmt 0
 736 0520 13060000 		li	a2,0
 737 0524 93050001 		li	a1,16
 738 0528 930484FC 		addi	s1,s0,-56
 739 052c 1B850400 		sext.w	a0,s1
 740 0530 97000000 		call	_Z8printIntiii@plt
 740      E7800000 
 741              	.LVL93:
 103:src/Threads_C_API_test.hpp ****     thread_create(&threads[1], workerBodyB, nullptr);
 742              		.loc 1 103 5 is_stmt 1
 743              		.loc 1 103 18 is_stmt 0
 744 0538 13060000 		li	a2,0
 745 053c 97050000 		lla	a1,_Z11workerBodyBPv
 745      93850500 
 746 0544 13850400 		mv	a0,s1
 747 0548 97000000 		call	_Z13thread_createPP3TCBPFvPvES2_@plt
 747      E7800000 
 748              	.LVL94:
 104:src/Threads_C_API_test.hpp ****     printString("ThreadB created\n");
 749              		.loc 1 104 5 is_stmt 1
 750              		.loc 1 104 16 is_stmt 0
 751 0550 17050000 		lla	a0,.LC15
 751      13050500 
 752 0558 97000000 		call	_Z11printStringPKc@plt
 752      E7800000 
 753              	.LVL95:
 105:src/Threads_C_API_test.hpp **** 
 106:src/Threads_C_API_test.hpp ****     printString("\nthr0: ");
 754              		.loc 1 106 5 is_stmt 1
 755              		.loc 1 106 16 is_stmt 0
 756 0560 17050000 		lla	a0,.LC13
 756      13050500 
 757 0568 97000000 		call	_Z11printStringPKc@plt
 757      E7800000 
 758              	.LVL96:
 107:src/Threads_C_API_test.hpp ****     printInt((uint64)&threads[2], 16, 0);
 759              		.loc 1 107 5 is_stmt 1
 760              		.loc 1 107 13 is_stmt 0
 761 0570 13060000 		li	a2,0
 762 0574 93050001 		li	a1,16
 763 0578 930404FD 		addi	s1,s0,-48
 764 057c 1B850400 		sext.w	a0,s1
 765 0580 97000000 		call	_Z8printIntiii@plt
 765      E7800000 
 766              	.LVL97:
 108:src/Threads_C_API_test.hpp ****     thread_create(&threads[2], workerBodyC, nullptr);
GAS LISTING /tmp/ccGYy57q.s 			page 19


 767              		.loc 1 108 5 is_stmt 1
 768              		.loc 1 108 18 is_stmt 0
 769 0588 13060000 		li	a2,0
 770 058c 97050000 		lla	a1,_Z11workerBodyCPv
 770      93850500 
 771 0594 13850400 		mv	a0,s1
 772 0598 97000000 		call	_Z13thread_createPP3TCBPFvPvES2_@plt
 772      E7800000 
 773              	.LVL98:
 109:src/Threads_C_API_test.hpp ****     printString("ThreadC created\n");
 774              		.loc 1 109 5 is_stmt 1
 775              		.loc 1 109 16 is_stmt 0
 776 05a0 17050000 		lla	a0,.LC16
 776      13050500 
 777 05a8 97000000 		call	_Z11printStringPKc@plt
 777      E7800000 
 778              	.LVL99:
 110:src/Threads_C_API_test.hpp **** 
 111:src/Threads_C_API_test.hpp ****     printString("\nthr0: ");
 779              		.loc 1 111 5 is_stmt 1
 780              		.loc 1 111 16 is_stmt 0
 781 05b0 17050000 		lla	a0,.LC13
 781      13050500 
 782 05b8 97000000 		call	_Z11printStringPKc@plt
 782      E7800000 
 783              	.LVL100:
 112:src/Threads_C_API_test.hpp ****     printInt((uint64)&threads[3], 16, 0);
 784              		.loc 1 112 5 is_stmt 1
 785              		.loc 1 112 13 is_stmt 0
 786 05c0 13060000 		li	a2,0
 787 05c4 93050001 		li	a1,16
 788 05c8 930484FD 		addi	s1,s0,-40
 789 05cc 1B850400 		sext.w	a0,s1
 790 05d0 97000000 		call	_Z8printIntiii@plt
 790      E7800000 
 791              	.LVL101:
 113:src/Threads_C_API_test.hpp ****     thread_create(&threads[3], workerBodyD, nullptr);
 792              		.loc 1 113 5 is_stmt 1
 793              		.loc 1 113 18 is_stmt 0
 794 05d8 13060000 		li	a2,0
 795 05dc 97050000 		lla	a1,_Z11workerBodyDPv
 795      93850500 
 796 05e4 13850400 		mv	a0,s1
 797 05e8 97000000 		call	_Z13thread_createPP3TCBPFvPvES2_@plt
 797      E7800000 
 798              	.LVL102:
 114:src/Threads_C_API_test.hpp ****     printString("ThreadD created\n");
 799              		.loc 1 114 5 is_stmt 1
 800              		.loc 1 114 16 is_stmt 0
 801 05f0 17050000 		lla	a0,.LC17
 801      13050500 
 802 05f8 97000000 		call	_Z11printStringPKc@plt
 802      E7800000 
 803              	.LVL103:
 804 0600 6F00C000 		j	.L38
 805              	.L36:
 115:src/Threads_C_API_test.hpp **** 
GAS LISTING /tmp/ccGYy57q.s 			page 20


 116:src/Threads_C_API_test.hpp ****     while (!(finishedA && finishedB && finishedC && finishedD)) {
 117:src/Threads_C_API_test.hpp ****         thread_dispatch();
 806              		.loc 1 117 9 is_stmt 1
 807              		.loc 1 117 24 is_stmt 0
 808 0604 97000000 		call	_Z15thread_dispatchv@plt
 808      E7800000 
 809              	.LVL104:
 810              	.L38:
 116:src/Threads_C_API_test.hpp ****         thread_dispatch();
 811              		.loc 1 116 5 is_stmt 1
 116:src/Threads_C_API_test.hpp ****         thread_dispatch();
 812              		.loc 1 116 12
 813 060c 97070000 		lbu	a5,.LANCHOR0
 813      83C70700 
 814 0614 E38807FE 		beqz	a5,.L36
 116:src/Threads_C_API_test.hpp ****         thread_dispatch();
 815              		.loc 1 116 24 is_stmt 0 discriminator 1
 816 0618 97070000 		lbu	a5,.LANCHOR0+1
 816      83C70700 
 817 0620 E38207FE 		beqz	a5,.L36
 116:src/Threads_C_API_test.hpp ****         thread_dispatch();
 818              		.loc 1 116 37 discriminator 2
 819 0624 97070000 		lbu	a5,.LANCHOR0+2
 819      83C70700 
 820 062c E38C07FC 		beqz	a5,.L36
 116:src/Threads_C_API_test.hpp ****         thread_dispatch();
 821              		.loc 1 116 12 discriminator 3
 822 0630 97070000 		lbu	a5,.LANCHOR0+3
 822      83C70700 
 823 0638 E38607FC 		beqz	a5,.L36
 118:src/Threads_C_API_test.hpp ****     }
 119:src/Threads_C_API_test.hpp **** 
 120:src/Threads_C_API_test.hpp **** }
 824              		.loc 1 120 1
 825 063c 83308103 		ld	ra,56(sp)
 826              		.cfi_restore 1
 827 0640 03340103 		ld	s0,48(sp)
 828              		.cfi_restore 8
 829              		.cfi_def_cfa 2, 64
 830 0644 83348102 		ld	s1,40(sp)
 831              		.cfi_restore 9
 832 0648 13010104 		addi	sp,sp,64
 833              		.cfi_def_cfa_offset 0
 834 064c 67800000 		jr	ra
 835              		.cfi_endproc
 836              	.LFE31:
 838              		.align	2
 839              		.globl	_Z8userMainv
 841              	_Z8userMainv:
 842              	.LFB32:
 843              		.file 2 "src/userMain.cpp"
   1:src/userMain.cpp **** #include "Threads_C_API_test.hpp" // zadatak 2, niti C API i sinhrona promena konteksta
   2:src/userMain.cpp **** //#include "../test/Threads_CPP_API_test.hpp" // zadatak 2., niti CPP API i sinhrona promena kontek
   3:src/userMain.cpp **** 
   4:src/userMain.cpp **** //#include "../test/ConsumerProducer_C_API_test.h" // zadatak 3., kompletan C API sa semaforima, si
   5:src/userMain.cpp **** //#include "../test/ConsumerProducer_CPP_Sync_API_test.hpp" // zadatak 3., kompletan CPP API sa sem
   6:src/userMain.cpp **** 
GAS LISTING /tmp/ccGYy57q.s 			page 21


   7:src/userMain.cpp **** //#include "../test/ThreadSleep_C_API_test.hpp" // thread_sleep test C API
   8:src/userMain.cpp **** //#include "../test/ConsumerProducer_CPP_API_test.hpp" // zadatak 4. CPP API i asinhrona promena ko
   9:src/userMain.cpp **** 
  10:src/userMain.cpp **** void userMain() {
 844              		.loc 2 10 17 is_stmt 1
 845              		.cfi_startproc
 846 0650 130101FF 		addi	sp,sp,-16
 847              		.cfi_def_cfa_offset 16
 848 0654 23341100 		sd	ra,8(sp)
 849 0658 23308100 		sd	s0,0(sp)
 850              		.cfi_offset 1, -8
 851              		.cfi_offset 8, -16
 852 065c 13040101 		addi	s0,sp,16
 853              		.cfi_def_cfa 8, 0
  11:src/userMain.cpp ****     Threads_C_API_test(); // zadatak 2., niti C API i sinhrona promena konteksta
 854              		.loc 2 11 5
 855              		.loc 2 11 23 is_stmt 0
 856 0660 97000000 		call	_Z18Threads_C_API_testv
 856      E7800000 
 857              	.LVL105:
  12:src/userMain.cpp ****     //Threads_CPP_API_test(); // zadatak 2., niti CPP API i sinhrona promena konteksta
  13:src/userMain.cpp **** 
  14:src/userMain.cpp ****     //producerConsumer_C_API(); // zadatak 3., kompletan C API sa semaforima, sinhrona promena kont
  15:src/userMain.cpp ****     //producerConsumer_CPP_Sync_API(); // zadatak 3., kompletan CPP API sa semaforima, sinhrona pro
  16:src/userMain.cpp **** 
  17:src/userMain.cpp ****     //testSleeping(); // thread_sleep test C API
  18:src/userMain.cpp ****    // ConsumerProducerCPP::testConsumerProducer(); // zadatak 4. CPP API i asinhrona promena kontek
  19:src/userMain.cpp **** 
  20:src/userMain.cpp **** }...
 858              		.loc 2 20 1
 859 0668 83308100 		ld	ra,8(sp)
 860              		.cfi_restore 1
 861 066c 03340100 		ld	s0,0(sp)
 862              		.cfi_restore 8
 863              		.cfi_def_cfa 2, 16
 864 0670 13010101 		addi	sp,sp,16
 865              		.cfi_def_cfa_offset 0
 866 0674 67800000 		jr	ra
 867              		.cfi_endproc
 868              	.LFE32:
 870              		.globl	finishedD
 871              		.globl	finishedC
 872              		.globl	finishedB
 873              		.globl	finishedA
 874              		.bss
 875              		.set	.LANCHOR0,. + 0
 878              	finishedA:
 879 0000 00       		.zero	1
 882              	finishedB:
 883 0001 00       		.zero	1
 886              	finishedC:
 887 0002 00       		.zero	1
 890              	finishedD:
 891 0003 00       		.zero	1
 892              		.text
 893              	.Letext0:
 894              		.file 3 "src/../h/../lib/hw.h"
GAS LISTING /tmp/ccGYy57q.s 			page 22


 895              		.file 4 "src/../h/../h/tcb.hpp"
 896              		.file 5 "src/printing.hpp"
 897              		.file 6 "src/../h/syscall_c.h"
GAS LISTING /tmp/ccGYy57q.s 			page 23


DEFINED SYMBOLS
                            *ABS*:0000000000000000 userMain.cpp
     /tmp/ccGYy57q.s:20     .text:0000000000000000 _Z11workerBodyAPv
     /tmp/ccGYy57q.s:24     .text:0000000000000000 .L0 
     /tmp/ccGYy57q.s:26     .text:0000000000000000 .L0 
     /tmp/ccGYy57q.s:27     .text:0000000000000004 .L0 
     /tmp/ccGYy57q.s:32     .text:0000000000000014 .L0 
     /tmp/ccGYy57q.s:33     .text:0000000000000014 .L0 
     /tmp/ccGYy57q.s:34     .text:0000000000000014 .L0 
     /tmp/ccGYy57q.s:35     .text:0000000000000014 .L0 
     /tmp/ccGYy57q.s:37     .text:0000000000000018 .L0 
     /tmp/ccGYy57q.s:41     .text:0000000000000018 .L0 
     /tmp/ccGYy57q.s:42     .text:0000000000000018 .L0 
     /tmp/ccGYy57q.s:47     .text:0000000000000020 .L0 
     /tmp/ccGYy57q.s:51     .text:0000000000000024 .L0 
     /tmp/ccGYy57q.s:55     .text:000000000000002c .L0 
     /tmp/ccGYy57q.s:56     .text:000000000000002c .L0 
     /tmp/ccGYy57q.s:60     .text:000000000000003c .L0 
     /tmp/ccGYy57q.s:61     .text:000000000000003c .L0 
     /tmp/ccGYy57q.s:67     .text:0000000000000050 .L0 
     /tmp/ccGYy57q.s:68     .text:0000000000000050 .L0 
     /tmp/ccGYy57q.s:73     .text:0000000000000060 .L0 
     /tmp/ccGYy57q.s:74     .text:0000000000000060 .L0 
     /tmp/ccGYy57q.s:78     .text:0000000000000064 .L0 
     /tmp/ccGYy57q.s:82     .text:0000000000000070 .L0 
     /tmp/ccGYy57q.s:83     .text:0000000000000070 .L0 
     /tmp/ccGYy57q.s:86     .text:0000000000000078 .L0 
     /tmp/ccGYy57q.s:95     .text:0000000000000080 .L0 
     /tmp/ccGYy57q.s:96     .text:0000000000000080 .L0 
     /tmp/ccGYy57q.s:100    .text:0000000000000090 .L0 
     /tmp/ccGYy57q.s:101    .text:0000000000000090 .L0 
     /tmp/ccGYy57q.s:104    .text:000000000000009c .L0 
     /tmp/ccGYy57q.s:105    .text:00000000000000a0 .L0 
     /tmp/ccGYy57q.s:107    .text:00000000000000a4 .L0 
     /tmp/ccGYy57q.s:108    .text:00000000000000a4 .L0 
     /tmp/ccGYy57q.s:110    .text:00000000000000a8 .L0 
     /tmp/ccGYy57q.s:112    .text:00000000000000ac .L0 
     /tmp/ccGYy57q.s:115    .text:00000000000000b0 .L0 
     /tmp/ccGYy57q.s:117    .text:00000000000000b4 .L0 
     /tmp/ccGYy57q.s:131    .text:00000000000000b4 _Z11workerBodyBPv
     /tmp/ccGYy57q.s:134    .text:00000000000000b4 .L0 
     /tmp/ccGYy57q.s:136    .text:00000000000000b4 .L0 
     /tmp/ccGYy57q.s:137    .text:00000000000000b8 .L0 
     /tmp/ccGYy57q.s:142    .text:00000000000000c8 .L0 
     /tmp/ccGYy57q.s:143    .text:00000000000000c8 .L0 
     /tmp/ccGYy57q.s:144    .text:00000000000000c8 .L0 
     /tmp/ccGYy57q.s:145    .text:00000000000000c8 .L0 
     /tmp/ccGYy57q.s:147    .text:00000000000000cc .L0 
     /tmp/ccGYy57q.s:151    .text:00000000000000cc .L0 
     /tmp/ccGYy57q.s:152    .text:00000000000000cc .L0 
     /tmp/ccGYy57q.s:157    .text:00000000000000d4 .L0 
     /tmp/ccGYy57q.s:161    .text:00000000000000d8 .L0 
     /tmp/ccGYy57q.s:165    .text:00000000000000e0 .L0 
     /tmp/ccGYy57q.s:166    .text:00000000000000e0 .L0 
     /tmp/ccGYy57q.s:170    .text:00000000000000f0 .L0 
     /tmp/ccGYy57q.s:171    .text:00000000000000f0 .L0 
     /tmp/ccGYy57q.s:177    .text:0000000000000104 .L0 
GAS LISTING /tmp/ccGYy57q.s 			page 24


     /tmp/ccGYy57q.s:178    .text:0000000000000104 .L0 
     /tmp/ccGYy57q.s:183    .text:0000000000000114 .L0 
     /tmp/ccGYy57q.s:184    .text:0000000000000114 .L0 
     /tmp/ccGYy57q.s:188    .text:0000000000000118 .L0 
     /tmp/ccGYy57q.s:192    .text:0000000000000124 .L0 
     /tmp/ccGYy57q.s:193    .text:0000000000000124 .L0 
     /tmp/ccGYy57q.s:196    .text:000000000000012c .L0 
     /tmp/ccGYy57q.s:205    .text:0000000000000134 .L0 
     /tmp/ccGYy57q.s:206    .text:0000000000000134 .L0 
     /tmp/ccGYy57q.s:210    .text:0000000000000144 .L0 
     /tmp/ccGYy57q.s:211    .text:0000000000000144 .L0 
     /tmp/ccGYy57q.s:214    .text:0000000000000150 .L0 
     /tmp/ccGYy57q.s:215    .text:0000000000000150 .L0 
     /tmp/ccGYy57q.s:218    .text:0000000000000158 .L0 
     /tmp/ccGYy57q.s:219    .text:000000000000015c .L0 
     /tmp/ccGYy57q.s:221    .text:0000000000000160 .L0 
     /tmp/ccGYy57q.s:222    .text:0000000000000160 .L0 
     /tmp/ccGYy57q.s:224    .text:0000000000000164 .L0 
     /tmp/ccGYy57q.s:226    .text:0000000000000168 .L0 
     /tmp/ccGYy57q.s:229    .text:000000000000016c .L0 
     /tmp/ccGYy57q.s:231    .text:0000000000000170 .L0 
     /tmp/ccGYy57q.s:237    .text:0000000000000170 _Z9fibonaccim
     /tmp/ccGYy57q.s:240    .text:0000000000000170 .L0 
     /tmp/ccGYy57q.s:242    .text:0000000000000170 .L0 
     /tmp/ccGYy57q.s:243    .text:0000000000000174 .L0 
     /tmp/ccGYy57q.s:248    .text:0000000000000184 .L0 
     /tmp/ccGYy57q.s:249    .text:0000000000000184 .L0 
     /tmp/ccGYy57q.s:250    .text:0000000000000184 .L0 
     /tmp/ccGYy57q.s:251    .text:0000000000000184 .L0 
     /tmp/ccGYy57q.s:253    .text:0000000000000188 .L0 
     /tmp/ccGYy57q.s:256    .text:000000000000018c .L0 
     /tmp/ccGYy57q.s:259    .text:0000000000000194 .L0 
     /tmp/ccGYy57q.s:260    .text:0000000000000194 .L0 
     /tmp/ccGYy57q.s:263    .text:000000000000019c .L0 
     /tmp/ccGYy57q.s:267    .text:00000000000001a0 .L0 
     /tmp/ccGYy57q.s:268    .text:00000000000001a0 .L0 
     /tmp/ccGYy57q.s:273    .text:00000000000001b0 .L0 
     /tmp/ccGYy57q.s:277    .text:00000000000001bc .L0 
     /tmp/ccGYy57q.s:280    .text:00000000000001c0 .L0 
     /tmp/ccGYy57q.s:281    .text:00000000000001c4 .L0 
     /tmp/ccGYy57q.s:282    .text:00000000000001c4 .L0 
     /tmp/ccGYy57q.s:284    .text:00000000000001c8 .L0 
     /tmp/ccGYy57q.s:285    .text:00000000000001c8 .L0 
     /tmp/ccGYy57q.s:287    .text:00000000000001cc .L0 
     /tmp/ccGYy57q.s:290    .text:00000000000001d0 .L0 
     /tmp/ccGYy57q.s:292    .text:00000000000001d4 .L0 
     /tmp/ccGYy57q.s:296    .text:00000000000001d8 .L0 
     /tmp/ccGYy57q.s:298    .text:00000000000001d8 .L0 
     /tmp/ccGYy57q.s:299    .text:00000000000001d8 .L0 
     /tmp/ccGYy57q.s:302    .text:00000000000001e4 .L0 
     /tmp/ccGYy57q.s:322    .text:00000000000001e4 _Z11workerBodyCPv
     /tmp/ccGYy57q.s:325    .text:00000000000001e4 .L0 
     /tmp/ccGYy57q.s:327    .text:00000000000001e4 .L0 
     /tmp/ccGYy57q.s:328    .text:00000000000001e8 .L0 
     /tmp/ccGYy57q.s:333    .text:00000000000001f8 .L0 
     /tmp/ccGYy57q.s:334    .text:00000000000001f8 .L0 
     /tmp/ccGYy57q.s:335    .text:00000000000001f8 .L0 
GAS LISTING /tmp/ccGYy57q.s 			page 25


     /tmp/ccGYy57q.s:336    .text:00000000000001f8 .L0 
     /tmp/ccGYy57q.s:338    .text:00000000000001fc .L0 
     /tmp/ccGYy57q.s:341    .text:00000000000001fc .L0 
     /tmp/ccGYy57q.s:342    .text:00000000000001fc .L0 
     /tmp/ccGYy57q.s:347    .text:0000000000000204 .L0 
     /tmp/ccGYy57q.s:348    .text:0000000000000204 .L0 
     /tmp/ccGYy57q.s:352    .text:0000000000000214 .L0 
     /tmp/ccGYy57q.s:353    .text:0000000000000214 .L0 
     /tmp/ccGYy57q.s:359    .text:0000000000000228 .L0 
     /tmp/ccGYy57q.s:360    .text:0000000000000228 .L0 
     /tmp/ccGYy57q.s:364    .text:0000000000000238 .L0 
     /tmp/ccGYy57q.s:370    .text:0000000000000240 .L0 
     /tmp/ccGYy57q.s:371    .text:0000000000000240 .L0 
     /tmp/ccGYy57q.s:374    .text:0000000000000248 .L0 
     /tmp/ccGYy57q.s:375    .text:0000000000000248 .L0 
     /tmp/ccGYy57q.s:379    .text:0000000000000258 .L0 
src/Threads_C_API_test.hpp:51     .text:0000000000000258 .L0 
     /tmp/ccGYy57q.s:385    .text:000000000000025c .L0 
     /tmp/ccGYy57q.s:387    .text:000000000000025c .L0 
     /tmp/ccGYy57q.s:390    .text:0000000000000264 .L0 
     /tmp/ccGYy57q.s:391    .text:0000000000000264 .L0 
src/Threads_C_API_test.hpp:55     .text:0000000000000264 .L0 
     /tmp/ccGYy57q.s:398    .text:0000000000000268 .L0 
     /tmp/ccGYy57q.s:400    .text:0000000000000268 .L0 
     /tmp/ccGYy57q.s:404    .text:0000000000000278 .L0 
     /tmp/ccGYy57q.s:405    .text:0000000000000278 .L0 
     /tmp/ccGYy57q.s:411    .text:000000000000028c .L0 
     /tmp/ccGYy57q.s:412    .text:000000000000028c .L0 
     /tmp/ccGYy57q.s:416    .text:000000000000029c .L0 
     /tmp/ccGYy57q.s:417    .text:000000000000029c .L0 
     /tmp/ccGYy57q.s:423    .text:00000000000002ac .L0 
     /tmp/ccGYy57q.s:424    .text:00000000000002ac .L0 
     /tmp/ccGYy57q.s:429    .text:00000000000002bc .L0 
     /tmp/ccGYy57q.s:430    .text:00000000000002bc .L0 
     /tmp/ccGYy57q.s:436    .text:00000000000002d0 .L0 
     /tmp/ccGYy57q.s:437    .text:00000000000002d0 .L0 
     /tmp/ccGYy57q.s:443    .text:00000000000002e4 .L0 
     /tmp/ccGYy57q.s:444    .text:00000000000002e4 .L0 
     /tmp/ccGYy57q.s:448    .text:00000000000002f4 .L0 
     /tmp/ccGYy57q.s:449    .text:00000000000002f4 .L0 
     /tmp/ccGYy57q.s:455    .text:0000000000000308 .L0 
     /tmp/ccGYy57q.s:456    .text:0000000000000308 .L0 
     /tmp/ccGYy57q.s:460    .text:0000000000000318 .L0 
     /tmp/ccGYy57q.s:466    .text:0000000000000320 .L0 
     /tmp/ccGYy57q.s:467    .text:0000000000000320 .L0 
     /tmp/ccGYy57q.s:470    .text:0000000000000328 .L0 
     /tmp/ccGYy57q.s:471    .text:0000000000000328 .L0 
     /tmp/ccGYy57q.s:475    .text:0000000000000338 .L0 
     /tmp/ccGYy57q.s:476    .text:0000000000000338 .L0 
     /tmp/ccGYy57q.s:479    .text:0000000000000344 .L0 
     /tmp/ccGYy57q.s:480    .text:0000000000000344 .L0 
     /tmp/ccGYy57q.s:483    .text:000000000000034c .L0 
     /tmp/ccGYy57q.s:484    .text:0000000000000350 .L0 
     /tmp/ccGYy57q.s:486    .text:0000000000000354 .L0 
     /tmp/ccGYy57q.s:487    .text:0000000000000354 .L0 
     /tmp/ccGYy57q.s:489    .text:0000000000000358 .L0 
     /tmp/ccGYy57q.s:492    .text:000000000000035c .L0 
GAS LISTING /tmp/ccGYy57q.s 			page 26


     /tmp/ccGYy57q.s:495    .text:0000000000000360 .L0 
     /tmp/ccGYy57q.s:497    .text:0000000000000364 .L0 
     /tmp/ccGYy57q.s:517    .text:0000000000000364 _Z11workerBodyDPv
     /tmp/ccGYy57q.s:520    .text:0000000000000364 .L0 
     /tmp/ccGYy57q.s:522    .text:0000000000000364 .L0 
     /tmp/ccGYy57q.s:523    .text:0000000000000368 .L0 
     /tmp/ccGYy57q.s:528    .text:0000000000000378 .L0 
     /tmp/ccGYy57q.s:529    .text:0000000000000378 .L0 
     /tmp/ccGYy57q.s:530    .text:0000000000000378 .L0 
     /tmp/ccGYy57q.s:531    .text:0000000000000378 .L0 
     /tmp/ccGYy57q.s:533    .text:000000000000037c .L0 
     /tmp/ccGYy57q.s:536    .text:000000000000037c .L0 
     /tmp/ccGYy57q.s:537    .text:000000000000037c .L0 
     /tmp/ccGYy57q.s:542    .text:0000000000000384 .L0 
     /tmp/ccGYy57q.s:543    .text:0000000000000384 .L0 
     /tmp/ccGYy57q.s:547    .text:0000000000000394 .L0 
     /tmp/ccGYy57q.s:548    .text:0000000000000394 .L0 
     /tmp/ccGYy57q.s:554    .text:00000000000003a8 .L0 
     /tmp/ccGYy57q.s:555    .text:00000000000003a8 .L0 
     /tmp/ccGYy57q.s:559    .text:00000000000003b8 .L0 
     /tmp/ccGYy57q.s:565    .text:00000000000003c0 .L0 
     /tmp/ccGYy57q.s:566    .text:00000000000003c0 .L0 
     /tmp/ccGYy57q.s:569    .text:00000000000003c8 .L0 
     /tmp/ccGYy57q.s:570    .text:00000000000003c8 .L0 
     /tmp/ccGYy57q.s:574    .text:00000000000003d8 .L0 
src/Threads_C_API_test.hpp:78     .text:00000000000003d8 .L0 
     /tmp/ccGYy57q.s:580    .text:00000000000003dc .L0 
     /tmp/ccGYy57q.s:582    .text:00000000000003dc .L0 
     /tmp/ccGYy57q.s:585    .text:00000000000003e4 .L0 
     /tmp/ccGYy57q.s:586    .text:00000000000003e4 .L0 
     /tmp/ccGYy57q.s:592    .text:00000000000003f4 .L0 
     /tmp/ccGYy57q.s:593    .text:00000000000003f4 .L0 
     /tmp/ccGYy57q.s:598    .text:0000000000000404 .L0 
     /tmp/ccGYy57q.s:599    .text:0000000000000404 .L0 
     /tmp/ccGYy57q.s:605    .text:0000000000000418 .L0 
     /tmp/ccGYy57q.s:606    .text:0000000000000418 .L0 
     /tmp/ccGYy57q.s:612    .text:000000000000042c .L0 
     /tmp/ccGYy57q.s:613    .text:000000000000042c .L0 
     /tmp/ccGYy57q.s:617    .text:000000000000043c .L0 
     /tmp/ccGYy57q.s:618    .text:000000000000043c .L0 
     /tmp/ccGYy57q.s:624    .text:0000000000000450 .L0 
     /tmp/ccGYy57q.s:625    .text:0000000000000450 .L0 
     /tmp/ccGYy57q.s:629    .text:0000000000000460 .L0 
     /tmp/ccGYy57q.s:635    .text:0000000000000468 .L0 
     /tmp/ccGYy57q.s:636    .text:0000000000000468 .L0 
     /tmp/ccGYy57q.s:639    .text:0000000000000470 .L0 
     /tmp/ccGYy57q.s:640    .text:0000000000000470 .L0 
     /tmp/ccGYy57q.s:644    .text:0000000000000480 .L0 
     /tmp/ccGYy57q.s:645    .text:0000000000000480 .L0 
     /tmp/ccGYy57q.s:648    .text:000000000000048c .L0 
     /tmp/ccGYy57q.s:649    .text:000000000000048c .L0 
     /tmp/ccGYy57q.s:652    .text:0000000000000494 .L0 
     /tmp/ccGYy57q.s:653    .text:0000000000000498 .L0 
     /tmp/ccGYy57q.s:655    .text:000000000000049c .L0 
     /tmp/ccGYy57q.s:656    .text:000000000000049c .L0 
     /tmp/ccGYy57q.s:658    .text:00000000000004a0 .L0 
     /tmp/ccGYy57q.s:661    .text:00000000000004a4 .L0 
GAS LISTING /tmp/ccGYy57q.s 			page 27


     /tmp/ccGYy57q.s:664    .text:00000000000004a8 .L0 
     /tmp/ccGYy57q.s:666    .text:00000000000004ac .L0 
     /tmp/ccGYy57q.s:689    .text:00000000000004ac _Z18Threads_C_API_testv
     /tmp/ccGYy57q.s:692    .text:00000000000004ac .L0 
     /tmp/ccGYy57q.s:693    .text:00000000000004ac .L0 
     /tmp/ccGYy57q.s:694    .text:00000000000004b0 .L0 
     /tmp/ccGYy57q.s:698    .text:00000000000004bc .L0 
     /tmp/ccGYy57q.s:699    .text:00000000000004bc .L0 
     /tmp/ccGYy57q.s:700    .text:00000000000004bc .L0 
     /tmp/ccGYy57q.s:702    .text:00000000000004c0 .L0 
     /tmp/ccGYy57q.s:704    .text:00000000000004c0 .L0 
     /tmp/ccGYy57q.s:705    .text:00000000000004c0 .L0 
     /tmp/ccGYy57q.s:706    .text:00000000000004c0 .L0 
     /tmp/ccGYy57q.s:710    .text:00000000000004d0 .L0 
     /tmp/ccGYy57q.s:711    .text:00000000000004d0 .L0 
     /tmp/ccGYy57q.s:718    .text:00000000000004e8 .L0 
     /tmp/ccGYy57q.s:719    .text:00000000000004e8 .L0 
     /tmp/ccGYy57q.s:725    .text:0000000000000500 .L0 
     /tmp/ccGYy57q.s:726    .text:0000000000000500 .L0 
     /tmp/ccGYy57q.s:730    .text:0000000000000510 .L0 
     /tmp/ccGYy57q.s:731    .text:0000000000000510 .L0 
     /tmp/ccGYy57q.s:735    .text:0000000000000520 .L0 
     /tmp/ccGYy57q.s:736    .text:0000000000000520 .L0 
     /tmp/ccGYy57q.s:743    .text:0000000000000538 .L0 
     /tmp/ccGYy57q.s:744    .text:0000000000000538 .L0 
     /tmp/ccGYy57q.s:750    .text:0000000000000550 .L0 
     /tmp/ccGYy57q.s:751    .text:0000000000000550 .L0 
     /tmp/ccGYy57q.s:755    .text:0000000000000560 .L0 
     /tmp/ccGYy57q.s:756    .text:0000000000000560 .L0 
     /tmp/ccGYy57q.s:760    .text:0000000000000570 .L0 
     /tmp/ccGYy57q.s:761    .text:0000000000000570 .L0 
     /tmp/ccGYy57q.s:768    .text:0000000000000588 .L0 
     /tmp/ccGYy57q.s:769    .text:0000000000000588 .L0 
     /tmp/ccGYy57q.s:775    .text:00000000000005a0 .L0 
     /tmp/ccGYy57q.s:776    .text:00000000000005a0 .L0 
     /tmp/ccGYy57q.s:780    .text:00000000000005b0 .L0 
     /tmp/ccGYy57q.s:781    .text:00000000000005b0 .L0 
     /tmp/ccGYy57q.s:785    .text:00000000000005c0 .L0 
     /tmp/ccGYy57q.s:786    .text:00000000000005c0 .L0 
     /tmp/ccGYy57q.s:793    .text:00000000000005d8 .L0 
     /tmp/ccGYy57q.s:794    .text:00000000000005d8 .L0 
     /tmp/ccGYy57q.s:800    .text:00000000000005f0 .L0 
     /tmp/ccGYy57q.s:801    .text:00000000000005f0 .L0 
     /tmp/ccGYy57q.s:807    .text:0000000000000604 .L0 
     /tmp/ccGYy57q.s:808    .text:0000000000000604 .L0 
     /tmp/ccGYy57q.s:812    .text:000000000000060c .L0 
     /tmp/ccGYy57q.s:813    .text:000000000000060c .L0 
     /tmp/ccGYy57q.s:816    .text:0000000000000618 .L0 
     /tmp/ccGYy57q.s:819    .text:0000000000000624 .L0 
     /tmp/ccGYy57q.s:822    .text:0000000000000630 .L0 
     /tmp/ccGYy57q.s:825    .text:000000000000063c .L0 
     /tmp/ccGYy57q.s:826    .text:0000000000000640 .L0 
     /tmp/ccGYy57q.s:828    .text:0000000000000644 .L0 
     /tmp/ccGYy57q.s:829    .text:0000000000000644 .L0 
     /tmp/ccGYy57q.s:831    .text:0000000000000648 .L0 
     /tmp/ccGYy57q.s:833    .text:000000000000064c .L0 
     /tmp/ccGYy57q.s:835    .text:0000000000000650 .L0 
GAS LISTING /tmp/ccGYy57q.s 			page 28


     /tmp/ccGYy57q.s:841    .text:0000000000000650 _Z8userMainv
     /tmp/ccGYy57q.s:845    .text:0000000000000650 .L0 
     /tmp/ccGYy57q.s:846    .text:0000000000000650 .L0 
     /tmp/ccGYy57q.s:847    .text:0000000000000654 .L0 
     /tmp/ccGYy57q.s:850    .text:000000000000065c .L0 
     /tmp/ccGYy57q.s:851    .text:000000000000065c .L0 
     /tmp/ccGYy57q.s:853    .text:0000000000000660 .L0 
     /tmp/ccGYy57q.s:855    .text:0000000000000660 .L0 
     /tmp/ccGYy57q.s:856    .text:0000000000000660 .L0 
     /tmp/ccGYy57q.s:859    .text:0000000000000668 .L0 
     /tmp/ccGYy57q.s:860    .text:000000000000066c .L0 
     /tmp/ccGYy57q.s:862    .text:0000000000000670 .L0 
     /tmp/ccGYy57q.s:863    .text:0000000000000670 .L0 
     /tmp/ccGYy57q.s:865    .text:0000000000000674 .L0 
     /tmp/ccGYy57q.s:867    .text:0000000000000678 .L0 
     /tmp/ccGYy57q.s:890    .bss:0000000000000003 finishedD
     /tmp/ccGYy57q.s:886    .bss:0000000000000002 finishedC
     /tmp/ccGYy57q.s:882    .bss:0000000000000001 finishedB
     /tmp/ccGYy57q.s:878    .bss:0000000000000000 finishedA
     /tmp/ccGYy57q.s:875    .bss:0000000000000000 .LANCHOR0
     /tmp/ccGYy57q.s:898    .text:0000000000000678 .L0 
     /tmp/ccGYy57q.s:8      .rodata.str1.8:0000000000000000 .LC0
     /tmp/ccGYy57q.s:56     .text:000000000000002c .L0 
     /tmp/ccGYy57q.s:11     .rodata.str1.8:0000000000000008 .LC1
     /tmp/ccGYy57q.s:68     .text:0000000000000050 .L0 
     /tmp/ccGYy57q.s:14     .rodata.str1.8:0000000000000010 .LC2
     /tmp/ccGYy57q.s:96     .text:0000000000000080 .L0 
     /tmp/ccGYy57q.s:102    .text:0000000000000094 .L0 
     /tmp/ccGYy57q.s:122    .rodata.str1.8:0000000000000020 .LC3
     /tmp/ccGYy57q.s:166    .text:00000000000000e0 .L0 
     /tmp/ccGYy57q.s:178    .text:0000000000000104 .L0 
     /tmp/ccGYy57q.s:125    .rodata.str1.8:0000000000000028 .LC4
     /tmp/ccGYy57q.s:206    .text:0000000000000134 .L0 
     /tmp/ccGYy57q.s:212    .text:0000000000000148 .L0 
     /tmp/ccGYy57q.s:307    .rodata.str1.8:0000000000000038 .LC5
     /tmp/ccGYy57q.s:348    .text:0000000000000204 .L0 
     /tmp/ccGYy57q.s:360    .text:0000000000000228 .L0 
     /tmp/ccGYy57q.s:310    .rodata.str1.8:0000000000000040 .LC6
     /tmp/ccGYy57q.s:375    .text:0000000000000248 .L0 
     /tmp/ccGYy57q.s:313    .rodata.str1.8:0000000000000050 .LC7
     /tmp/ccGYy57q.s:400    .text:0000000000000268 .L0 
     /tmp/ccGYy57q.s:412    .text:000000000000028c .L0 
     /tmp/ccGYy57q.s:316    .rodata.str1.8:0000000000000058 .LC8
     /tmp/ccGYy57q.s:424    .text:00000000000002ac .L0 
     /tmp/ccGYy57q.s:437    .text:00000000000002d0 .L0 
     /tmp/ccGYy57q.s:444    .text:00000000000002e4 .L0 
     /tmp/ccGYy57q.s:456    .text:0000000000000308 .L0 
     /tmp/ccGYy57q.s:471    .text:0000000000000328 .L0 
     /tmp/ccGYy57q.s:477    .text:000000000000033c .L0 
     /tmp/ccGYy57q.s:502    .rodata.str1.8:0000000000000068 .LC9
     /tmp/ccGYy57q.s:543    .text:0000000000000384 .L0 
     /tmp/ccGYy57q.s:555    .text:00000000000003a8 .L0 
     /tmp/ccGYy57q.s:505    .rodata.str1.8:0000000000000070 .LC10
     /tmp/ccGYy57q.s:570    .text:00000000000003c8 .L0 
     /tmp/ccGYy57q.s:508    .rodata.str1.8:0000000000000080 .LC11
     /tmp/ccGYy57q.s:593    .text:00000000000003f4 .L0 
     /tmp/ccGYy57q.s:606    .text:0000000000000418 .L0 
GAS LISTING /tmp/ccGYy57q.s 			page 29


     /tmp/ccGYy57q.s:613    .text:000000000000042c .L0 
     /tmp/ccGYy57q.s:625    .text:0000000000000450 .L0 
     /tmp/ccGYy57q.s:511    .rodata.str1.8:0000000000000090 .LC12
     /tmp/ccGYy57q.s:640    .text:0000000000000470 .L0 
     /tmp/ccGYy57q.s:646    .text:0000000000000484 .L0 
     /tmp/ccGYy57q.s:671    .rodata.str1.8:00000000000000a0 .LC13
     /tmp/ccGYy57q.s:706    .text:00000000000004c0 .L0 
     /tmp/ccGYy57q.s:720    .text:00000000000004ec .L0 
     /tmp/ccGYy57q.s:674    .rodata.str1.8:00000000000000a8 .LC14
     /tmp/ccGYy57q.s:726    .text:0000000000000500 .L0 
     /tmp/ccGYy57q.s:731    .text:0000000000000510 .L0 
     /tmp/ccGYy57q.s:745    .text:000000000000053c .L0 
     /tmp/ccGYy57q.s:677    .rodata.str1.8:00000000000000c0 .LC15
     /tmp/ccGYy57q.s:751    .text:0000000000000550 .L0 
     /tmp/ccGYy57q.s:756    .text:0000000000000560 .L0 
     /tmp/ccGYy57q.s:770    .text:000000000000058c .L0 
     /tmp/ccGYy57q.s:680    .rodata.str1.8:00000000000000d8 .LC16
     /tmp/ccGYy57q.s:776    .text:00000000000005a0 .L0 
     /tmp/ccGYy57q.s:781    .text:00000000000005b0 .L0 
     /tmp/ccGYy57q.s:795    .text:00000000000005dc .L0 
     /tmp/ccGYy57q.s:683    .rodata.str1.8:00000000000000f0 .LC17
     /tmp/ccGYy57q.s:801    .text:00000000000005f0 .L0 
     /tmp/ccGYy57q.s:813    .text:000000000000060c .L0 
     /tmp/ccGYy57q.s:816    .text:0000000000000618 .L0 
     /tmp/ccGYy57q.s:819    .text:0000000000000624 .L0 
     /tmp/ccGYy57q.s:822    .text:0000000000000630 .L0 
     /tmp/ccGYy57q.s:49     .text:0000000000000024 .L5
     /tmp/ccGYy57q.s:90     .text:0000000000000080 .L2
     /tmp/ccGYy57q.s:45     .text:0000000000000020 .L3
     /tmp/ccGYy57q.s:76     .text:0000000000000064 .L4
     /tmp/ccGYy57q.s:159    .text:00000000000000d8 .L11
     /tmp/ccGYy57q.s:200    .text:0000000000000134 .L8
     /tmp/ccGYy57q.s:155    .text:00000000000000d4 .L9
     /tmp/ccGYy57q.s:186    .text:0000000000000118 .L10
     /tmp/ccGYy57q.s:278    .text:00000000000001c0 .L13
     /tmp/ccGYy57q.s:295    .text:00000000000001d8 .L18
     /tmp/ccGYy57q.s:265    .text:00000000000001a0 .L15
     /tmp/ccGYy57q.s:368    .text:0000000000000240 .L21
     /tmp/ccGYy57q.s:345    .text:0000000000000204 .L25
     /tmp/ccGYy57q.s:464    .text:0000000000000320 .L23
     /tmp/ccGYy57q.s:441    .text:00000000000002e4 .L26
     /tmp/ccGYy57q.s:563    .text:00000000000003c0 .L29
     /tmp/ccGYy57q.s:540    .text:0000000000000384 .L33
     /tmp/ccGYy57q.s:633    .text:0000000000000468 .L31
     /tmp/ccGYy57q.s:610    .text:000000000000042c .L34
     /tmp/ccGYy57q.s:810    .text:000000000000060c .L38
     /tmp/ccGYy57q.s:805    .text:0000000000000604 .L36
     /tmp/ccGYy57q.s:2435   .debug_abbrev:0000000000000000 .Ldebug_abbrev0
     /tmp/ccGYy57q.s:3520   .debug_str:000000000000049f .LASF80
     /tmp/ccGYy57q.s:3456   .debug_str:0000000000000289 .LASF81
     /tmp/ccGYy57q.s:3494   .debug_str:00000000000003d5 .LASF82
     /tmp/ccGYy57q.s:5      .text:0000000000000000 .Ltext0
     /tmp/ccGYy57q.s:893    .text:0000000000000678 .Letext0
     /tmp/ccGYy57q.s:3358   .debug_line:0000000000000000 .Ldebug_line0
     /tmp/ccGYy57q.s:3476   .debug_str:0000000000000329 .LASF0
     /tmp/ccGYy57q.s:3486   .debug_str:000000000000037c .LASF1
     /tmp/ccGYy57q.s:3458   .debug_str:000000000000029a .LASF2
GAS LISTING /tmp/ccGYy57q.s 			page 30


     /tmp/ccGYy57q.s:3402   .debug_str:0000000000000127 .LASF3
     /tmp/ccGYy57q.s:3436   .debug_str:0000000000000215 .LASF4
     /tmp/ccGYy57q.s:3510   .debug_str:000000000000043a .LASF5
     /tmp/ccGYy57q.s:3380   .debug_str:000000000000007c .LASF6
     /tmp/ccGYy57q.s:3492   .debug_str:00000000000003c2 .LASF7
     /tmp/ccGYy57q.s:3474   .debug_str:0000000000000316 .LASF8
     /tmp/ccGYy57q.s:3528   .debug_str:0000000000000593 .LASF9
     /tmp/ccGYy57q.s:3426   .debug_str:00000000000001b9 .LASF10
     /tmp/ccGYy57q.s:3498   .debug_str:00000000000003f4 .LASF11
     /tmp/ccGYy57q.s:3522   .debug_str:0000000000000563 .LASF12
     /tmp/ccGYy57q.s:3382   .debug_str:0000000000000083 .LASF13
     /tmp/ccGYy57q.s:3368   .debug_str:0000000000000028 .LASF14
     /tmp/ccGYy57q.s:3384   .debug_str:0000000000000093 .LASF15
     /tmp/ccGYy57q.s:3506   .debug_str:000000000000041e .LASF16
     /tmp/ccGYy57q.s:3390   .debug_str:00000000000000b5 .LASF17
     /tmp/ccGYy57q.s:3372   .debug_str:0000000000000042 .LASF83
     /tmp/ccGYy57q.s:3478   .debug_str:0000000000000336 .LASF36
     /tmp/ccGYy57q.s:3410   .debug_str:000000000000014e .LASF38
     /tmp/ccGYy57q.s:3428   .debug_str:00000000000001c7 .LASF22
     /tmp/ccGYy57q.s:3502   .debug_str:000000000000040d .LASF24
     /tmp/ccGYy57q.s:3464   .debug_str:00000000000002c6 .LASF18
     /tmp/ccGYy57q.s:3424   .debug_str:00000000000001a2 .LASF20
     /tmp/ccGYy57q.s:3396   .debug_str:00000000000000f5 .LASF19
     /tmp/ccGYy57q.s:3484   .debug_str:0000000000000364 .LASF21
     /tmp/ccGYy57q.s:3460   .debug_str:00000000000002a8 .LASF23
     /tmp/ccGYy57q.s:3430   .debug_str:00000000000001cc .LASF25
     /tmp/ccGYy57q.s:3374   .debug_str:000000000000004a .LASF26
     /tmp/ccGYy57q.s:3440   .debug_str:0000000000000226 .LASF27
     /tmp/ccGYy57q.s:3452   .debug_str:000000000000026e .LASF28
     /tmp/ccGYy57q.s:3378   .debug_str:0000000000000063 .LASF29
     /tmp/ccGYy57q.s:3450   .debug_str:0000000000000261 .LASF30
     /tmp/ccGYy57q.s:3532   .debug_str:00000000000005ad .LASF31
     /tmp/ccGYy57q.s:3504   .debug_str:0000000000000419 .LASF84
     /tmp/ccGYy57q.s:3406   .debug_str:0000000000000136 .LASF32
     /tmp/ccGYy57q.s:3514   .debug_str:000000000000045d .LASF33
     /tmp/ccGYy57q.s:3408   .debug_str:0000000000000140 .LASF34
     /tmp/ccGYy57q.s:3480   .debug_str:000000000000033f .LASF35
     /tmp/ccGYy57q.s:3508   .debug_str:0000000000000434 .LASF37
     /tmp/ccGYy57q.s:3466   .debug_str:00000000000002d1 .LASF39
     /tmp/ccGYy57q.s:3538   .debug_str:00000000000005e9 .LASF85
     /tmp/ccGYy57q.s:3398   .debug_str:0000000000000101 .LASF86
     /tmp/ccGYy57q.s:3518   .debug_str:0000000000000494 .LASF40
     /tmp/ccGYy57q.s:3516   .debug_str:000000000000047c .LASF87
     /tmp/ccGYy57q.s:3444   .debug_str:0000000000000247 .LASF41
     /tmp/ccGYy57q.s:3386   .debug_str:000000000000009f .LASF42
     /tmp/ccGYy57q.s:3446   .debug_str:000000000000024c .LASF43
     /tmp/ccGYy57q.s:3482   .debug_str:000000000000035a .LASF44
     /tmp/ccGYy57q.s:3442   .debug_str:000000000000023e .LASF45
     /tmp/ccGYy57q.s:3416   .debug_str:000000000000017b .LASF46
     /tmp/ccGYy57q.s:3496   .debug_str:00000000000003ee .LASF47
     /tmp/ccGYy57q.s:3454   .debug_str:000000000000027b .LASF48
     /tmp/ccGYy57q.s:3468   .debug_str:00000000000002e1 .LASF50
     /tmp/ccGYy57q.s:3534   .debug_str:00000000000005d0 .LASF49
     /tmp/ccGYy57q.s:3432   .debug_str:00000000000001e3 .LASF51
     /tmp/ccGYy57q.s:3512   .debug_str:000000000000044c .LASF88
     /tmp/ccGYy57q.s:3536   .debug_str:00000000000005de .LASF89
     /tmp/ccGYy57q.s:3360   .debug_str:0000000000000000 .LASF52
GAS LISTING /tmp/ccGYy57q.s 			page 31


     /tmp/ccGYy57q.s:3412   .debug_str:0000000000000161 .LASF53
     /tmp/ccGYy57q.s:3500   .debug_str:0000000000000403 .LASF54
     /tmp/ccGYy57q.s:3434   .debug_str:000000000000020b .LASF55
     /tmp/ccGYy57q.s:3370   .debug_str:0000000000000038 .LASF56
     /tmp/ccGYy57q.s:3438   .debug_str:000000000000021c .LASF57
     /tmp/ccGYy57q.s:3404   .debug_str:000000000000012d .LASF58
     /tmp/ccGYy57q.s:3448   .debug_str:0000000000000254 .LASF59
     /tmp/ccGYy57q.s:842    .text:0000000000000650 .LFB32
     /tmp/ccGYy57q.s:868    .text:0000000000000678 .LFE32
     /tmp/ccGYy57q.s:857    .text:0000000000000668 .LVL105
     /tmp/ccGYy57q.s:3524   .debug_str:0000000000000572 .LASF60
     /tmp/ccGYy57q.s:3394   .debug_str:00000000000000dd .LASF61
     /tmp/ccGYy57q.s:690    .text:00000000000004ac .LFB31
     /tmp/ccGYy57q.s:836    .text:0000000000000650 .LFE31
     /tmp/ccGYy57q.s:3420   .debug_str:000000000000018e .LASF62
     /tmp/ccGYy57q.s:708    .text:00000000000004d0 .LVL88
     /tmp/ccGYy57q.s:716    .text:00000000000004e8 .LVL89
     /tmp/ccGYy57q.s:723    .text:0000000000000500 .LVL90
     /tmp/ccGYy57q.s:728    .text:0000000000000510 .LVL91
     /tmp/ccGYy57q.s:733    .text:0000000000000520 .LVL92
     /tmp/ccGYy57q.s:741    .text:0000000000000538 .LVL93
     /tmp/ccGYy57q.s:748    .text:0000000000000550 .LVL94
     /tmp/ccGYy57q.s:753    .text:0000000000000560 .LVL95
     /tmp/ccGYy57q.s:758    .text:0000000000000570 .LVL96
     /tmp/ccGYy57q.s:766    .text:0000000000000588 .LVL97
     /tmp/ccGYy57q.s:773    .text:00000000000005a0 .LVL98
     /tmp/ccGYy57q.s:778    .text:00000000000005b0 .LVL99
     /tmp/ccGYy57q.s:783    .text:00000000000005c0 .LVL100
     /tmp/ccGYy57q.s:791    .text:00000000000005d8 .LVL101
     /tmp/ccGYy57q.s:798    .text:00000000000005f0 .LVL102
     /tmp/ccGYy57q.s:803    .text:0000000000000600 .LVL103
     /tmp/ccGYy57q.s:809    .text:000000000000060c .LVL104
     /tmp/ccGYy57q.s:3376   .debug_str:0000000000000057 .LASF63
     /tmp/ccGYy57q.s:3462   .debug_str:00000000000002b4 .LASF64
     /tmp/ccGYy57q.s:518    .text:0000000000000364 .LFB30
     /tmp/ccGYy57q.s:667    .text:00000000000004ac .LFE30
     /tmp/ccGYy57q.s:3141   .debug_loc:0000000000000000 .LLST11
     /tmp/ccGYy57q.s:3155   .debug_loc:0000000000000039 .LLST12
     /tmp/ccGYy57q.s:3362   .debug_str:0000000000000009 .LASF65
     /tmp/ccGYy57q.s:3175   .debug_loc:0000000000000096 .LLST13
     /tmp/ccGYy57q.s:545    .text:0000000000000394 .LVL66
     /tmp/ccGYy57q.s:552    .text:00000000000003a8 .LVL67
     /tmp/ccGYy57q.s:557    .text:00000000000003b8 .LVL68
     /tmp/ccGYy57q.s:572    .text:00000000000003d8 .LVL71
     /tmp/ccGYy57q.s:583    .text:00000000000003e4 .LVL72
     /tmp/ccGYy57q.s:588    .text:00000000000003f0 .LVL73
     /tmp/ccGYy57q.s:596    .text:0000000000000404 .LVL76
     /tmp/ccGYy57q.s:603    .text:0000000000000418 .LVL77
     /tmp/ccGYy57q.s:608    .text:0000000000000428 .LVL78
     /tmp/ccGYy57q.s:615    .text:000000000000043c .LVL79
     /tmp/ccGYy57q.s:622    .text:0000000000000450 .LVL80
     /tmp/ccGYy57q.s:627    .text:0000000000000460 .LVL81
     /tmp/ccGYy57q.s:642    .text:0000000000000480 .LVL84
     /tmp/ccGYy57q.s:650    .text:0000000000000494 .LVL85
     /tmp/ccGYy57q.s:3366   .debug_str:000000000000001c .LASF66
     /tmp/ccGYy57q.s:3488   .debug_str:000000000000038f .LASF67
     /tmp/ccGYy57q.s:323    .text:00000000000001e4 .LFB29
GAS LISTING /tmp/ccGYy57q.s 			page 32


     /tmp/ccGYy57q.s:498    .text:0000000000000364 .LFE29
     /tmp/ccGYy57q.s:3186   .debug_loc:00000000000000cc .LLST7
     /tmp/ccGYy57q.s:3200   .debug_loc:0000000000000105 .LLST8
     /tmp/ccGYy57q.s:3220   .debug_loc:0000000000000162 .LLST9
     /tmp/ccGYy57q.s:3228   .debug_loc:0000000000000186 .LLST10
     /tmp/ccGYy57q.s:350    .text:0000000000000214 .LVL37
     /tmp/ccGYy57q.s:357    .text:0000000000000228 .LVL38
     /tmp/ccGYy57q.s:362    .text:0000000000000238 .LVL39
     /tmp/ccGYy57q.s:377    .text:0000000000000258 .LVL42
     /tmp/ccGYy57q.s:388    .text:0000000000000264 .LVL43
     /tmp/ccGYy57q.s:402    .text:0000000000000278 .LVL45
     /tmp/ccGYy57q.s:409    .text:000000000000028c .LVL46
     /tmp/ccGYy57q.s:414    .text:000000000000029c .LVL47
     /tmp/ccGYy57q.s:419    .text:00000000000002a8 .LVL48
     /tmp/ccGYy57q.s:427    .text:00000000000002bc .LVL51
     /tmp/ccGYy57q.s:434    .text:00000000000002d0 .LVL52
     /tmp/ccGYy57q.s:439    .text:00000000000002e0 .LVL53
     /tmp/ccGYy57q.s:446    .text:00000000000002f4 .LVL54
     /tmp/ccGYy57q.s:453    .text:0000000000000308 .LVL55
     /tmp/ccGYy57q.s:458    .text:0000000000000318 .LVL56
     /tmp/ccGYy57q.s:473    .text:0000000000000338 .LVL59
     /tmp/ccGYy57q.s:481    .text:000000000000034c .LVL60
     /tmp/ccGYy57q.s:3364   .debug_str:0000000000000010 .LASF68
     /tmp/ccGYy57q.s:3540   .debug_str:00000000000005f1 .LASF69
     /tmp/ccGYy57q.s:132    .text:00000000000000b4 .LFB28
     /tmp/ccGYy57q.s:232    .text:0000000000000170 .LFE28
     /tmp/ccGYy57q.s:3239   .debug_loc:00000000000001bc .LLST3
     /tmp/ccGYy57q.s:150    .text:00000000000000cc .LBB5
     /tmp/ccGYy57q.s:203    .text:0000000000000134 .LBE5
     /tmp/ccGYy57q.s:3253   .debug_loc:00000000000001f5 .LLST4
     /tmp/ccGYy57q.s:182    .text:0000000000000114 .LBB7
     /tmp/ccGYy57q.s:201    .text:0000000000000134 .LBE7
     /tmp/ccGYy57q.s:3265   .debug_loc:000000000000022c .LLST5
     /tmp/ccGYy57q.s:194    .text:000000000000012c .LVL21
     /tmp/ccGYy57q.s:168    .text:00000000000000f0 .LVL17
     /tmp/ccGYy57q.s:175    .text:0000000000000104 .LVL18
     /tmp/ccGYy57q.s:180    .text:0000000000000114 .LVL19
     /tmp/ccGYy57q.s:208    .text:0000000000000144 .LVL24
     /tmp/ccGYy57q.s:216    .text:0000000000000158 .LVL25
     /tmp/ccGYy57q.s:3470   .debug_str:00000000000002fb .LASF70
     /tmp/ccGYy57q.s:3392   .debug_str:00000000000000cb .LASF71
     /tmp/ccGYy57q.s:21     .text:0000000000000000 .LFB27
     /tmp/ccGYy57q.s:118    .text:00000000000000b4 .LFE27
     /tmp/ccGYy57q.s:3281   .debug_loc:0000000000000276 .LLST0
     /tmp/ccGYy57q.s:40     .text:0000000000000018 .LBB2
     /tmp/ccGYy57q.s:93     .text:0000000000000080 .LBE2
     /tmp/ccGYy57q.s:3295   .debug_loc:00000000000002af .LLST1
     /tmp/ccGYy57q.s:72     .text:0000000000000060 .LBB4
     /tmp/ccGYy57q.s:91     .text:0000000000000080 .LBE4
     /tmp/ccGYy57q.s:3307   .debug_loc:00000000000002e6 .LLST2
     /tmp/ccGYy57q.s:84     .text:0000000000000078 .LVL8
     /tmp/ccGYy57q.s:58     .text:000000000000003c .LVL4
     /tmp/ccGYy57q.s:65     .text:0000000000000050 .LVL5
     /tmp/ccGYy57q.s:70     .text:0000000000000060 .LVL6
     /tmp/ccGYy57q.s:98     .text:0000000000000090 .LVL11
     /tmp/ccGYy57q.s:3530   .debug_str:00000000000005a3 .LASF90
     /tmp/ccGYy57q.s:3526   .debug_str:0000000000000585 .LASF91
GAS LISTING /tmp/ccGYy57q.s 			page 33


     /tmp/ccGYy57q.s:238    .text:0000000000000170 .LFB26
     /tmp/ccGYy57q.s:303    .text:00000000000001e4 .LFE26
     /tmp/ccGYy57q.s:3323   .debug_loc:0000000000000330 .LLST6
     /tmp/ccGYy57q.s:270    .text:00000000000001ac .LVL29
     /tmp/ccGYy57q.s:275    .text:00000000000001bc .LVL30
     /tmp/ccGYy57q.s:300    .text:00000000000001e0 .LVL33
     /tmp/ccGYy57q.s:3542   .debug_str:0000000000000603 .LASF72
     /tmp/ccGYy57q.s:3422   .debug_str:0000000000000196 .LASF74
     /tmp/ccGYy57q.s:3472   .debug_str:0000000000000307 .LASF73
     /tmp/ccGYy57q.s:3418   .debug_str:0000000000000185 .LASF75
     /tmp/ccGYy57q.s:3490   .debug_str:00000000000003a1 .LASF76
     /tmp/ccGYy57q.s:3400   .debug_str:0000000000000119 .LASF77
     /tmp/ccGYy57q.s:3414   .debug_str:0000000000000166 .LASF78
     /tmp/ccGYy57q.s:3388   .debug_str:00000000000000a5 .LASF79
     /tmp/ccGYy57q.s:521    .text:0000000000000364 .LVL63
     /tmp/ccGYy57q.s:539    .text:0000000000000384 .LVL65
     /tmp/ccGYy57q.s:535    .text:000000000000037c .LVL64
     /tmp/ccGYy57q.s:560    .text:00000000000003bc .LVL69
     /tmp/ccGYy57q.s:562    .text:00000000000003c0 .LVL70
     /tmp/ccGYy57q.s:630    .text:0000000000000464 .LVL82
     /tmp/ccGYy57q.s:632    .text:0000000000000468 .LVL83
     /tmp/ccGYy57q.s:659    .text:00000000000004a0 .LVL86
     /tmp/ccGYy57q.s:590    .text:00000000000003f4 .LVL74
     /tmp/ccGYy57q.s:594    .text:00000000000003fc .LVL75
     /tmp/ccGYy57q.s:662    .text:00000000000004a4 .LVL87
     /tmp/ccGYy57q.s:326    .text:00000000000001e4 .LVL34
     /tmp/ccGYy57q.s:344    .text:0000000000000204 .LVL36
     /tmp/ccGYy57q.s:340    .text:00000000000001fc .LVL35
     /tmp/ccGYy57q.s:365    .text:000000000000023c .LVL40
     /tmp/ccGYy57q.s:367    .text:0000000000000240 .LVL41
     /tmp/ccGYy57q.s:461    .text:000000000000031c .LVL57
     /tmp/ccGYy57q.s:463    .text:0000000000000320 .LVL58
     /tmp/ccGYy57q.s:490    .text:0000000000000358 .LVL61
     /tmp/ccGYy57q.s:396    .text:0000000000000268 .LVL44
     /tmp/ccGYy57q.s:421    .text:00000000000002ac .LVL49
     /tmp/ccGYy57q.s:425    .text:00000000000002b4 .LVL50
     /tmp/ccGYy57q.s:493    .text:000000000000035c .LVL62
     /tmp/ccGYy57q.s:135    .text:00000000000000b4 .LVL13
     /tmp/ccGYy57q.s:154    .text:00000000000000d4 .LVL15
     /tmp/ccGYy57q.s:149    .text:00000000000000cc .LVL14
     /tmp/ccGYy57q.s:227    .text:0000000000000168 .LVL26
     /tmp/ccGYy57q.s:158    .text:00000000000000d8 .LVL16
     /tmp/ccGYy57q.s:185    .text:0000000000000118 .LVL20
     /tmp/ccGYy57q.s:199    .text:0000000000000134 .LVL23
     /tmp/ccGYy57q.s:25     .text:0000000000000000 .LVL0
     /tmp/ccGYy57q.s:44     .text:0000000000000020 .LVL2
     /tmp/ccGYy57q.s:39     .text:0000000000000018 .LVL1
     /tmp/ccGYy57q.s:113    .text:00000000000000ac .LVL12
     /tmp/ccGYy57q.s:48     .text:0000000000000024 .LVL3
     /tmp/ccGYy57q.s:75     .text:0000000000000064 .LVL7
     /tmp/ccGYy57q.s:89     .text:0000000000000080 .LVL10
     /tmp/ccGYy57q.s:241    .text:0000000000000170 .LVL27
     /tmp/ccGYy57q.s:264    .text:00000000000001a0 .LVL28
     /tmp/ccGYy57q.s:288    .text:00000000000001cc .LVL31
     /tmp/ccGYy57q.s:294    .text:00000000000001d8 .LVL32
     /tmp/ccGYy57q.s:899    .debug_info:0000000000000000 .Ldebug_info0

GAS LISTING /tmp/ccGYy57q.s 			page 34


UNDEFINED SYMBOLS
_Z11printStringPKc
_Z8printIntiii
_Z15thread_dispatchv
_Z13thread_createPP3TCBPFvPvES2_
